MPASM  5.51                            E3.ASM   4-14-2024  21:24:21         PAGE  1


LOC  OBJECT CODE     LINE SOURCE TEXT
  VALUE

Warning[205]: Found directive in column 1. (include)
                      00001 include <p16f877.inc>
                      00001         LIST
                      00002 
                      00003 ;==========================================================================
                      00004 ;  MPASM PIC16F877 processor include
                      00005 ; 
                      00006 ;  (c) Copyright 1999-2013 Microchip Technology, All rights reserved
                      00007 ;==========================================================================
                      00008 
Message[301]: MESSAGE: (Processor-header file mismatch.  Verify selected processor.)
                      00540         LIST
                      00002 
  00000020            00003 VAL             EQU             0X20            ;Localidad de memoria 0x20 asignada a registro VAL
  00000021            00004 VAL2    EQU             0X21
  00000022            00005 AUX             EQU             0X22
  00000023            00006 AUX2    EQU             0X23
  00000024            00007 AUX3    EQU             0X24    
                      00008                 
0000                  00009                 ORG             0
0000   2805           00010                 GOTO    INICIO
0005                  00011                 ORG             5
                      00012 
0005   0185           00013 INICIO: CLRF    PORTA           ;Limpia registro PORTA nos permite recibir la señal analógica
0006   1683           00014                 BSF             STATUS,RP0
0007   1303           00015                 BCF             STATUS,RP1      ;Mueve al banco 1
Message[302]: Register in operand not in bank 0.  Ensure that bank bits are correct.
0008   0188           00016                 CLRF    TRISD           ;Configura registro PORTB como salida
Message[302]: Register in operand not in bank 0.  Ensure that bank bits are correct.
0009   019F           00017                 CLRF    ADCON1          ;Limpio ADCON1, defino que el formato de resultado se carga en A
                            DRESH, y puertos A y D como analógicos
000A   1283           00018                 BCF             STATUS,RP0      ;Muevo al banco 0
000B   0188           00019                 CLRF    PORTD
                      00020                 ;Para el canal 5
000C   1003           00021 REPITE: BCF             STATUS,C        ;Limpiamos el carry
                      00022         
000D   30E9           00023                 MOVLW   B'11101001'     
000E   009F           00024                 MOVWF   ADCON0          ;ADCON0 <- 11 (frecuencia interna) 001 (QUé canal A1) 0 (Go/Done
                            ) 0(No existe) 1(convertidor)
000F   151F           00025                 BSF             ADCON0,2        ;GO/DONE INICIA CONVERSION
0010   203D           00026                 CALL    RETARDO         ;SE GENERA RETARDO
0011   111F           00027                 BCF             ADCON0,2        ;La conversion termina resultado en reg ADRESH
0012   081E           00028                 MOVFW   ADRESH          ;Guarda resultado en registro W
0013   00A2           00029                 MOVWF   AUX                     ;Guardamos conversion en var auxiliar                   
                      00030                 ;Para el canal 6
0014   30F1           00031                 MOVLW   B'11110001'     
0015   009F           00032                 MOVWF   ADCON0          ;ADCON0 <- 11 (frecuencia interna) 001 (QUé canal A1) 0 (Go/Done
                            ) 0(No existe) 1(convertidor)
0016   151F           00033                 BSF             ADCON0,2        ;GO/DONE INICIA CONVERSION
0017   203D           00034                 CALL    RETARDO         ;SE GENERA RETARDO
0018   111F           00035                 BCF             ADCON0,2        ;La conversion termina resultado en reg ADRESH
0019   081E           00036                 MOVFW   ADRESH          ;Guarda resultado en registro W
001A   00A3           00037                 MOVWF   AUX2            ;Guardamos conversion en var auxiliar2  
MPASM  5.51                            E3.ASM   4-14-2024  21:24:21         PAGE  2


LOC  OBJECT CODE     LINE SOURCE TEXT
  VALUE

                      00038                 ;Para el canal 7
001B   30F9           00039                 MOVLW   B'11111001'     
001C   009F           00040                 MOVWF   ADCON0          ;ADCON0 <- 11 (frecuencia interna) 001 (QUé canal A1) 0 (Go/Done
                            ) 0(No existe) 1(convertidor)
001D   151F           00041                 BSF             ADCON0,2        ;GO/DONE INICIA CONVERSION
001E   203D           00042                 CALL    RETARDO         ;SE GENERA RETARDO
001F   111F           00043                 BCF             ADCON0,2        ;La conversion termina resultado en reg ADRESH
0020   081E           00044                 MOVFW   ADRESH          ;Guarda resultado en registro W
0021   00A4           00045                 MOVWF   AUX3            ;Guardamos conversion en var auxiliar3  
                      00046 
                      00047                 ;Consiguiendo el voltaje mayor
0022   0223           00048                 SUBWF   AUX2,W                  ;CANAL 6 - CANAL 7
0023   1803           00049                 BTFSC   STATUS,C                ;Si carry es 1 canal 6 > 7
0024   282A           00050                 GOTO    CANAL6_7                ;Si canal 6 es mayor a canal 7
0025   0824           00051                 MOVFW   AUX3                    ;W <- Canal 7
0026   0222           00052                 SUBWF   AUX,W                   ;Canal 5 - Canal 7
0027   1803           00053                 BTFSC   STATUS,C                ;Si carry es 1 canal 5 > 7
0028   282F           00054                 GOTO    CANAL5_7                ;Si canal 5 es mayor a canal7
0029   283A           00055                 GOTO    CANAL7_MAYOR    ;Si canal 7 es el canal mayor
                      00056 
002A                  00057 CANAL6_7:
002A   0823           00058                 MOVFW   AUX2                    ;W <- Canal 6
002B   0222           00059                 SUBWF   AUX,W                   ;Canal 5 - Canal 6
002C   1803           00060                 BTFSC   STATUS,C                ;Si el canal 5 es mayor al canal 6
002D   2834           00061                 GOTO    CANAL5_MAYOR    ;Carry 0, 5 es mayor
002E   2837           00062                 GOTO    CANAL6_MAYOR    ;Carry 1, 6 es mayor
002F                  00063 CANAL5_7:
002F   0822           00064                 MOVFW   AUX                             ;W <- Canal 5
0030   0223           00065                 SUBWF   AUX2,W                  ;Canal 5 - Canal 6
0031   1803           00066                 BTFSC   STATUS,C                ;Si el canal 6 es mayor al canal 5
0032   2837           00067                 GOTO    CANAL6_MAYOR    ;Carry 0, 6 es mayor
0033   2834           00068                 GOTO    CANAL5_MAYOR    ;Carry 1, 5 es mayor
                      00069 
0034                  00070 CANAL5_MAYOR:
0034   3001           00071                 MOVLW   b'00000001'
0035   0088           00072                 MOVWF   PORTD
0036   280C           00073                 GOTO    REPITE
0037                  00074 CANAL6_MAYOR:
0037   3003           00075                 MOVLW   b'00000011'
0038   0088           00076                 MOVWF   PORTD
0039   280C           00077                 GOTO    REPITE
003A                  00078 CANAL7_MAYOR:   
003A   3007           00079                 MOVLW   b'00000111'
003B   0088           00080                 MOVWF   PORTD
003C   280C           00081                 GOTO    REPITE
                      00082 
003D                  00083 RETARDO:        
003D   3050           00084                         MOVLW   0X50
003E   00A1           00085                         MOVWF   VAL2
003F                  00086 LOOP1:
Warning[202]: Argument out of range.  Least significant bits used.
003F   3050           00087                         MOVLW   0X250
0040   00A0           00088                         MOVWF   VAL
MPASM  5.51                            E3.ASM   4-14-2024  21:24:21         PAGE  3


LOC  OBJECT CODE     LINE SOURCE TEXT
  VALUE

Message[305]: Using default destination of 1 (file).
0041   0BA0           00089 LOOP:           DECFSZ  VAL
0042   2841           00090                         GOTO    LOOP
Message[305]: Using default destination of 1 (file).
0043   0BA1           00091                         DECFSZ  VAL2
0044   283F           00092                         GOTO    LOOP1   
0045   0008           00093                         RETURN
                      00094         
                      00095                 END
MPASM  5.51                            E3.ASM   4-14-2024  21:24:21         PAGE  4


SYMBOL TABLE
  LABEL                             VALUE 

ACKDT                             00000005
ACKEN                             00000004
ACKSTAT                           00000006
ADCON0                            0000001F
ADCON1                            0000009F
ADCS0                             00000006
ADCS1                             00000007
ADDEN                             00000003
ADFM                              00000007
ADIE                              00000006
ADIF                              00000006
ADON                              00000000
ADRESH                            0000001E
ADRESL                            0000009E
AUX                               00000022
AUX2                              00000023
AUX3                              00000024
BCLIE                             00000003
BCLIF                             00000003
BF                                00000000
BRGH                              00000002
C                                 00000000
CANAL5_7                          0000002F
CANAL5_MAYOR                      00000034
CANAL6_7                          0000002A
CANAL6_MAYOR                      00000037
CANAL7_MAYOR                      0000003A
CCP1CON                           00000017
CCP1IE                            00000002
CCP1IF                            00000002
CCP1M0                            00000000
CCP1M1                            00000001
CCP1M2                            00000002
CCP1M3                            00000003
CCP1X                             00000005
CCP1Y                             00000004
CCP2CON                           0000001D
CCP2IE                            00000000
CCP2IF                            00000000
CCP2M0                            00000000
CCP2M1                            00000001
CCP2M2                            00000002
CCP2M3                            00000003
CCP2X                             00000005
CCP2Y                             00000004
CCPR1                             00000015
CCPR1H                            00000016
CCPR1L                            00000015
CCPR2                             0000001B
CCPR2H                            0000001C
CCPR2L                            0000001B
CHS0                              00000003
CHS1                              00000004
MPASM  5.51                            E3.ASM   4-14-2024  21:24:21         PAGE  5


SYMBOL TABLE
  LABEL                             VALUE 

CHS2                              00000005
CKE                               00000006
CKP                               00000004
CREN                              00000004
CSRC                              00000007
D                                 00000005
DATA_ADDRESS                      00000005
DC                                00000001
D_A                               00000005
D_NOT_A                           00000005
EEADR                             0000010D
EEADRH                            0000010F
EECON1                            0000018C
EECON2                            0000018D
EEDATA                            0000010C
EEDATH                            0000010E
EEIE                              00000004
EEIF                              00000004
EEPGD                             00000007
F                                 00000001
FERR                              00000002
FSR                               00000004
GCEN                              00000007
GIE                               00000007
GO                                00000002
GO_DONE                           00000002
GO_NOT_DONE                       00000002
I2C_DATA                          00000005
I2C_READ                          00000002
I2C_START                         00000003
I2C_STOP                          00000004
IBF                               00000007
IBOV                              00000005
INDF                              00000000
INICIO                            00000005
INTCON                            0000000B
INTE                              00000004
INTEDG                            00000006
INTF                              00000001
IRP                               00000007
LOOP                              00000041
LOOP1                             0000003F
NOT_A                             00000005
NOT_ADDRESS                       00000005
NOT_BO                            00000000
NOT_BOR                           00000000
NOT_DONE                          00000002
NOT_PD                            00000003
NOT_POR                           00000001
NOT_RBPU                          00000007
NOT_RC8                           00000006
NOT_T1SYNC                        00000002
NOT_TO                            00000004
MPASM  5.51                            E3.ASM   4-14-2024  21:24:21         PAGE  6


SYMBOL TABLE
  LABEL                             VALUE 

NOT_TX8                           00000006
NOT_W                             00000002
NOT_WRITE                         00000002
OBF                               00000006
OERR                              00000001
OPTION_REG                        00000081
P                                 00000004
PCFG0                             00000000
PCFG1                             00000001
PCFG2                             00000002
PCFG3                             00000003
PCL                               00000002
PCLATH                            0000000A
PCON                              0000008E
PEIE                              00000006
PEN                               00000002
PIE1                              0000008C
PIE2                              0000008D
PIR1                              0000000C
PIR2                              0000000D
PORTA                             00000005
PORTB                             00000006
PORTC                             00000007
PORTD                             00000008
PORTE                             00000009
PR2                               00000092
PS0                               00000000
PS1                               00000001
PS2                               00000002
PSA                               00000003
PSPIE                             00000007
PSPIF                             00000007
PSPMODE                           00000004
R                                 00000002
RA0                               00000000
RA1                               00000001
RA2                               00000002
RA3                               00000003
RA4                               00000004
RA5                               00000005
RB0                               00000000
RB1                               00000001
RB2                               00000002
RB3                               00000003
RB4                               00000004
RB5                               00000005
RB6                               00000006
RB7                               00000007
RBIE                              00000003
RBIF                              00000000
RC0                               00000000
RC1                               00000001
RC2                               00000002
MPASM  5.51                            E3.ASM   4-14-2024  21:24:21         PAGE  7


SYMBOL TABLE
  LABEL                             VALUE 

RC3                               00000003
RC4                               00000004
RC5                               00000005
RC6                               00000006
RC7                               00000007
RC8_9                             00000006
RC9                               00000006
RCD8                              00000000
RCEN                              00000003
RCIE                              00000005
RCIF                              00000005
RCREG                             0000001A
RCSTA                             00000018
RD                                00000000
RD0                               00000000
RD1                               00000001
RD2                               00000002
RD3                               00000003
RD4                               00000004
RD5                               00000005
RD6                               00000006
RD7                               00000007
RE0                               00000000
RE1                               00000001
RE2                               00000002
READ_WRITE                        00000002
REPITE                            0000000C
RETARDO                           0000003D
RP0                               00000005
RP1                               00000006
RSEN                              00000001
RX9                               00000006
RX9D                              00000000
R_NOT_W                           00000002
R_W                               00000002
S                                 00000003
SEN                               00000000
SMP                               00000007
SPBRG                             00000099
SPEN                              00000007
SREN                              00000005
SSPADD                            00000093
SSPBUF                            00000013
SSPCON                            00000014
SSPCON2                           00000091
SSPEN                             00000005
SSPIE                             00000003
SSPIF                             00000003
SSPM0                             00000000
SSPM1                             00000001
SSPM2                             00000002
SSPM3                             00000003
SSPOV                             00000006
MPASM  5.51                            E3.ASM   4-14-2024  21:24:21         PAGE  8


SYMBOL TABLE
  LABEL                             VALUE 

SSPSTAT                           00000094
STATUS                            00000003
SYNC                              00000004
T0CS                              00000005
T0IE                              00000005
T0IF                              00000002
T0SE                              00000004
T1CKPS0                           00000004
T1CKPS1                           00000005
T1CON                             00000010
T1INSYNC                          00000002
T1OSCEN                           00000003
T1SYNC                            00000002
T2CKPS0                           00000000
T2CKPS1                           00000001
T2CON                             00000012
TMR0                              00000001
TMR0IE                            00000005
TMR0IF                            00000002
TMR1                              0000000E
TMR1CS                            00000001
TMR1H                             0000000F
TMR1IE                            00000000
TMR1IF                            00000000
TMR1L                             0000000E
TMR1ON                            00000000
TMR2                              00000011
TMR2IE                            00000001
TMR2IF                            00000001
TMR2ON                            00000002
TOUTPS0                           00000003
TOUTPS1                           00000004
TOUTPS2                           00000005
TOUTPS3                           00000006
TRISA                             00000085
TRISA0                            00000000
TRISA1                            00000001
TRISA2                            00000002
TRISA3                            00000003
TRISA4                            00000004
TRISA5                            00000005
TRISB                             00000086
TRISB0                            00000000
TRISB1                            00000001
TRISB2                            00000002
TRISB3                            00000003
TRISB4                            00000004
TRISB5                            00000005
TRISB6                            00000006
TRISB7                            00000007
TRISC                             00000087
TRISC0                            00000000
TRISC1                            00000001
MPASM  5.51                            E3.ASM   4-14-2024  21:24:21         PAGE  9


SYMBOL TABLE
  LABEL                             VALUE 

TRISC2                            00000002
TRISC3                            00000003
TRISC4                            00000004
TRISC5                            00000005
TRISC6                            00000006
TRISC7                            00000007
TRISD                             00000088
TRISD0                            00000000
TRISD1                            00000001
TRISD2                            00000002
TRISD3                            00000003
TRISD4                            00000004
TRISD5                            00000005
TRISD6                            00000006
TRISD7                            00000007
TRISE                             00000089
TRISE0                            00000000
TRISE1                            00000001
TRISE2                            00000002
TRMT                              00000001
TX8_9                             00000006
TX9                               00000006
TX9D                              00000000
TXD8                              00000000
TXEN                              00000005
TXIE                              00000004
TXIF                              00000004
TXREG                             00000019
TXSTA                             00000098
UA                                00000001
VAL                               00000020
VAL2                              00000021
W                                 00000000
WCOL                              00000007
WR                                00000001
WREN                              00000002
WRERR                             00000003
Z                                 00000002
_BODEN_OFF                        00003FBF
_BODEN_ON                         00003FFF
_BOREN_OFF                        00003FBF
_BOREN_ON                         00003FFF
_CONFIG                           00002007
_CPD_OFF                          00003FFF
_CPD_ON                           00003EFF
_CP_ALL                           00000FCF
_CP_HALF                          00001FDF
_CP_OFF                           00003FFF
_CP_UPPER_256                     00002FEF
_DEBUG_OFF                        00003FFF
_DEBUG_ON                         000037FF
_DEVID1                           00002006
_FOSC_EXTRC                       00003FFF
MPASM  5.51                            E3.ASM   4-14-2024  21:24:21         PAGE 10


SYMBOL TABLE
  LABEL                             VALUE 

_FOSC_HS                          00003FFE
_FOSC_LP                          00003FFC
_FOSC_XT                          00003FFD
_HS_OSC                           00003FFE
_IDLOC0                           00002000
_IDLOC1                           00002001
_IDLOC2                           00002002
_IDLOC3                           00002003
_LP_OSC                           00003FFC
_LVP_OFF                          00003F7F
_LVP_ON                           00003FFF
_PWRTE_OFF                        00003FFF
_PWRTE_ON                         00003FF7
_RC_OSC                           00003FFF
_WDTE_OFF                         00003FFB
_WDTE_ON                          00003FFF
_WDT_OFF                          00003FFB
_WDT_ON                           00003FFF
_WRT_ENABLE_OFF                   00003DFF
_WRT_ENABLE_ON                    00003FFF
_WRT_OFF                          00003DFF
_WRT_ON                           00003FFF
_XT_OSC                           00003FFD
__16F877A                         00000001


MEMORY USAGE MAP ('X' = Used,  '-' = Unused)

0000 : X----XXXXXXXXXXX XXXXXXXXXXXXXXXX XXXXXXXXXXXXXXXX XXXXXXXXXXXXXXXX
0040 : XXXXXX---------- ---------------- ---------------- ----------------

All other memory blocks unused.

Program Memory Words Used:    66
Program Memory Words Free:  8126


Errors   :     0
Warnings :     2 reported,     0 suppressed
Messages :     5 reported,     0 suppressed

