CCS PCM C Compiler, Version 5.015, 5967               13-may.-24 11:27

               Filename:   C:\Users\USER\Documents\GitHub\PIC16F877A\Proyectos\ProyectoFinal\proyectoFinal.lst

               ROM used:   5235 words (64%)
                           Largest free fragment is 1792
               RAM used:   33 (9%) at main() level
                           89 (24%) worst case
               Stack used: 9 locations (4 in main + 5 for interrupts)
               Stack size: 8

*
0000:  MOVLW  0E
0001:  MOVWF  0A
0002:  GOTO   623
0003:  NOP
0004:  MOVWF  7F
0005:  SWAPF  03,W
0006:  CLRF   03
0007:  MOVWF  21
0008:  MOVF   0A,W
0009:  MOVWF  20
000A:  CLRF   0A
000B:  MOVF   04,W
000C:  MOVWF  22
000D:  MOVF   77,W
000E:  MOVWF  23
000F:  MOVF   78,W
0010:  MOVWF  24
0011:  MOVF   79,W
0012:  MOVWF  25
0013:  MOVF   7A,W
0014:  MOVWF  26
0015:  BSF    03.6
0016:  MOVF   0D,W
0017:  BCF    03.6
0018:  MOVWF  27
0019:  BSF    03.6
001A:  MOVF   0F,W
001B:  BCF    03.6
001C:  MOVWF  28
001D:  BSF    03.6
001E:  MOVF   0C,W
001F:  BCF    03.6
0020:  MOVWF  29
0021:  BSF    03.6
0022:  MOVF   0E,W
0023:  BCF    03.6
0024:  MOVWF  2A
0025:  BCF    03.7
0026:  BCF    03.5
0027:  BTFSS  0B.3
0028:  GOTO   02B
0029:  BTFSC  0B.0
002A:  GOTO   04C
002B:  MOVF   22,W
002C:  MOVWF  04
002D:  MOVF   23,W
002E:  MOVWF  77
002F:  MOVF   24,W
0030:  MOVWF  78
0031:  MOVF   25,W
0032:  MOVWF  79
0033:  MOVF   26,W
0034:  MOVWF  7A
0035:  MOVF   27,W
0036:  BSF    03.6
0037:  MOVWF  0D
0038:  BCF    03.6
0039:  MOVF   28,W
003A:  BSF    03.6
003B:  MOVWF  0F
003C:  BCF    03.6
003D:  MOVF   29,W
003E:  BSF    03.6
003F:  MOVWF  0C
0040:  BCF    03.6
0041:  MOVF   2A,W
0042:  BSF    03.6
0043:  MOVWF  0E
0044:  BCF    03.6
0045:  MOVF   20,W
0046:  MOVWF  0A
0047:  SWAPF  21,W
0048:  MOVWF  03
0049:  SWAPF  7F,F
004A:  SWAPF  7F,W
004B:  RETFIE
004C:  BSF    0A.3
004D:  BCF    0A.4
004E:  GOTO   1F7
.................... #include <16F877A.h>             // biblioteca del microcontrolador 
.................... //////////// Standard Header file for the PIC16F877A device //////////////// 
.................... /////////////////////////////////////////////////////////////////////////// 
.................... ////        (C) Copyright 1996, 2013 Custom Computer Services          //// 
.................... //// This source code may only be used by licensed users of the CCS C  //// 
.................... //// compiler.  This source code may only be distributed to other      //// 
.................... //// licensed users of the CCS C compiler.  No other use, reproduction //// 
.................... //// or distribution is permitted without written permission.          //// 
.................... //// Derivative programs created using this software in object code    //// 
.................... //// form are not restricted in any way.                               //// 
.................... /////////////////////////////////////////////////////////////////////////// 
.................... #device PIC16F877A 
004F:  DATA A0,22
0050:  DATA F1,3A
0051:  DATA 69,38
0052:  DATA 6F,10
0053:  DATA 32,1D
0054:  DATA 0A,00
0055:  DATA A0,20
0056:  DATA EC,31
0057:  DATA 61,37
0058:  DATA F4,30
0059:  DATA 72,10
005A:  DATA D6,34
005B:  DATA 61,37
005C:  DATA E5,3C
005D:  DATA 20,00
005E:  DATA A0,29
005F:  DATA 61,37
0060:  DATA 63,34
0061:  DATA 65,3D
0062:  DATA A0,20
0063:  DATA EC,32
0064:  DATA F8,34
0065:  DATA 73,10
0066:  DATA 00,01
0067:  DATA 20,2B
0068:  DATA 65,36
0069:  DATA 61,3D
006A:  DATA F1,3A
006B:  DATA 65,3D
006C:  DATA A0,25
006D:  DATA 61,39
006E:  DATA EC,30
006F:  DATA 20,00
0070:  DATA 50,39
0071:  DATA EF,3C
0072:  DATA E5,31
0073:  DATA F4,37
0074:  DATA 20,23
0075:  DATA 69,37
0076:  DATA 61,36
0077:  DATA 20,10
0078:  DATA 00,00
0079:  DATA 20,10
007A:  DATA 20,2B
007B:  DATA 6F,36
007C:  DATA F4,30
007D:  DATA EA,32
007E:  DATA 20,10
007F:  DATA 20,10
0080:  DATA 20,00
0081:  DATA 20,10
0082:  DATA 2A,2A
0083:  DATA E5,36
0084:  DATA F0,32
0085:  DATA F2,30
0086:  DATA F4,3A
0087:  DATA F2,30
0088:  DATA 20,00
0089:  DATA 20,10
008A:  DATA 20,2A
008B:  DATA E5,36
008C:  DATA F0,32
008D:  DATA F2,30
008E:  DATA F4,3A
008F:  DATA F2,30
0090:  DATA 20,00
0091:  DATA 20,10
0092:  DATA 2A,2B
0093:  DATA 6F,36
0094:  DATA F4,30
0095:  DATA EA,32
0096:  DATA 20,10
0097:  DATA 20,10
0098:  DATA 20,00
0099:  DATA 20,10
009A:  DATA A0,21
009B:  DATA 6F,39
009C:  DATA F2,34
009D:  DATA 65,37
009E:  DATA F4,32
009F:  DATA 20,10
00A0:  DATA 20,00
00A1:  DATA 20,10
00A2:  DATA 2A,2B
00A3:  DATA 6F,36
00A4:  DATA F4,30
00A5:  DATA EA,32
00A6:  DATA 20,10
00A7:  DATA 20,10
00A8:  DATA 20,00
00A9:  DATA 20,10
00AA:  DATA 20,2B
00AB:  DATA 6F,36
00AC:  DATA F4,30
00AD:  DATA EA,32
00AE:  DATA 20,10
00AF:  DATA 20,10
00B0:  DATA 20,00
00B1:  DATA 20,10
00B2:  DATA AA,21
00B3:  DATA 6F,39
00B4:  DATA F2,34
00B5:  DATA 65,37
00B6:  DATA F4,32
00B7:  DATA 20,10
00B8:  DATA 20,00
00B9:  DATA 20,2A
00BA:  DATA E5,36
00BB:  DATA F0,32
00BC:  DATA F2,30
00BD:  DATA F4,3A
00BE:  DATA F2,30
00BF:  DATA 3A,10
00C0:  DATA 20,10
00C1:  DATA 00,01
00C2:  DATA 20,10
00C3:  DATA A0,12
00C4:  DATA 30,1A
00C5:  DATA AE,18
00C6:  DATA 66,10
00C7:  DATA 43,10
00C8:  DATA 20,10
00C9:  DATA 80,1E
00CA:  DATA 20,2B
00CB:  DATA 6F,36
00CC:  DATA F4,30
00CD:  DATA EA,32
00CE:  DATA 3A,10
00CF:  DATA 20,10
00D0:  DATA 20,10
00D1:  DATA 20,10
00D2:  DATA 00,01
00D3:  DATA 20,10
00D4:  DATA 20,10
00D5:  DATA 25,18
00D6:  DATA 2E,19
00D7:  DATA 66,10
00D8:  DATA 56,10
00D9:  DATA 20,10
00DA:  DATA 20,10
00DB:  DATA 20,00
00DC:  DATA A0,21
00DD:  DATA 6F,39
00DE:  DATA F2,34
00DF:  DATA 65,37
00E0:  DATA F4,32
00E1:  DATA 3A,10
00E2:  DATA 20,10
00E3:  DATA 20,10
00E4:  DATA 00,01
00E5:  DATA 20,10
00E6:  DATA 20,10
00E7:  DATA 25,18
00E8:  DATA 35,17
00E9:  DATA 31,33
00EA:  DATA A0,36
00EB:  DATA 41,10
00EC:  DATA 20,10
00ED:  DATA 20,00
*
0351:  MOVF   0B,W
0352:  MOVWF  5A
0353:  BCF    0B.7
0354:  BSF    03.5
0355:  BSF    03.6
0356:  BSF    0C.7
0357:  BSF    0C.0
0358:  NOP
0359:  NOP
035A:  BCF    03.5
035B:  BCF    03.6
035C:  BTFSC  5A.7
035D:  BSF    0B.7
035E:  BSF    03.6
035F:  MOVF   0C,W
0360:  ANDLW  7F
0361:  BTFSC  03.2
0362:  GOTO   3A5
0363:  BCF    03.6
0364:  MOVWF  5A
0365:  BSF    03.6
0366:  MOVF   0D,W
0367:  BCF    03.6
0368:  MOVWF  5B
0369:  BSF    03.6
036A:  MOVF   0F,W
036B:  BCF    03.6
036C:  MOVWF  5C
036D:  MOVF   5A,W
036E:  MOVWF  67
036F:  CALL   102
0370:  MOVF   5B,W
0371:  BSF    03.6
0372:  MOVWF  0D
0373:  BCF    03.6
0374:  MOVF   5C,W
0375:  BSF    03.6
0376:  MOVWF  0F
0377:  BCF    03.6
0378:  MOVF   0B,W
0379:  MOVWF  5D
037A:  BCF    0B.7
037B:  BSF    03.5
037C:  BSF    03.6
037D:  BSF    0C.7
037E:  BSF    0C.0
037F:  NOP
0380:  NOP
0381:  BCF    03.5
0382:  BCF    03.6
0383:  BTFSC  5D.7
0384:  BSF    0B.7
0385:  BSF    03.6
0386:  RLF    0C,W
0387:  RLF    0E,W
0388:  ANDLW  7F
0389:  BTFSC  03.2
038A:  GOTO   3A5
038B:  BCF    03.6
038C:  MOVWF  5A
038D:  BSF    03.6
038E:  MOVF   0D,W
038F:  BCF    03.6
0390:  MOVWF  5B
0391:  BSF    03.6
0392:  MOVF   0F,W
0393:  BCF    03.6
0394:  MOVWF  5C
0395:  MOVF   5A,W
0396:  MOVWF  67
0397:  CALL   102
0398:  MOVF   5B,W
0399:  BSF    03.6
039A:  MOVWF  0D
039B:  BCF    03.6
039C:  MOVF   5C,W
039D:  BSF    03.6
039E:  MOVWF  0F
039F:  INCF   0D,F
03A0:  BTFSC  03.2
03A1:  INCF   0F,F
03A2:  BCF    03.6
03A3:  GOTO   351
03A4:  BSF    03.6
03A5:  BCF    03.6
03A6:  RETURN
*
0800:  MOVF   67,W
0801:  BTFSC  03.2
0802:  GOTO   070
0803:  MOVWF  6F
0804:  MOVF   6B,W
0805:  BTFSC  03.2
0806:  GOTO   070
0807:  ADDWF  6F,F
0808:  BTFSC  03.0
0809:  GOTO   011
080A:  MOVLW  7F
080B:  SUBWF  6F,F
080C:  BTFSS  03.0
080D:  GOTO   070
080E:  BTFSC  03.2
080F:  GOTO   070
0810:  GOTO   015
0811:  MOVLW  81
0812:  ADDWF  6F,F
0813:  BTFSC  03.0
0814:  GOTO   070
0815:  MOVF   6F,W
0816:  MOVWF  77
0817:  CLRF   78
0818:  CLRF   79
0819:  CLRF   7A
081A:  MOVF   68,W
081B:  MOVWF  73
081C:  BSF    73.7
081D:  MOVF   69,W
081E:  MOVWF  72
081F:  MOVF   6A,W
0820:  MOVWF  71
0821:  MOVLW  18
0822:  MOVWF  6F
0823:  CLRF   70
0824:  BTFSS  71.0
0825:  GOTO   03E
0826:  MOVF   6E,W
0827:  ADDWF  7A,F
0828:  BTFSS  03.0
0829:  GOTO   030
082A:  INCF   79,F
082B:  BTFSS  03.2
082C:  GOTO   030
082D:  INCF   78,F
082E:  BTFSC  03.2
082F:  BSF    70.7
0830:  MOVF   6D,W
0831:  ADDWF  79,F
0832:  BTFSS  03.0
0833:  GOTO   037
0834:  INCF   78,F
0835:  BTFSC  03.2
0836:  BSF    70.7
0837:  MOVF   6C,W
0838:  MOVWF  69
0839:  BSF    69.7
083A:  MOVF   69,W
083B:  ADDWF  78,F
083C:  BTFSC  03.0
083D:  BSF    70.7
083E:  RLF    70,F
083F:  RRF    78,F
0840:  RRF    79,F
0841:  RRF    7A,F
0842:  RRF    73,F
0843:  RRF    72,F
0844:  RRF    71,F
0845:  BCF    03.0
0846:  DECFSZ 6F,F
0847:  GOTO   023
0848:  MOVLW  01
0849:  ADDWF  77,F
084A:  BTFSC  03.0
084B:  GOTO   070
084C:  BTFSC  78.7
084D:  GOTO   055
084E:  RLF    73,F
084F:  RLF    7A,F
0850:  RLF    79,F
0851:  RLF    78,F
0852:  DECF   77,F
0853:  BTFSC  03.2
0854:  GOTO   070
0855:  BTFSS  73.7
0856:  GOTO   066
0857:  INCF   7A,F
0858:  BTFSS  03.2
0859:  GOTO   066
085A:  INCF   79,F
085B:  BTFSS  03.2
085C:  GOTO   066
085D:  INCF   78,F
085E:  BTFSS  03.2
085F:  GOTO   066
0860:  RRF    78,F
0861:  RRF    79,F
0862:  RRF    7A,F
0863:  INCF   77,F
0864:  BTFSC  03.2
0865:  GOTO   070
0866:  MOVF   68,W
0867:  MOVWF  70
0868:  MOVF   6C,W
0869:  XORWF  70,F
086A:  BTFSS  70.7
086B:  GOTO   06E
086C:  BSF    78.7
086D:  GOTO   074
086E:  BCF    78.7
086F:  GOTO   074
0870:  CLRF   77
0871:  CLRF   78
0872:  CLRF   79
0873:  CLRF   7A
0874:  RETURN
0875:  MOVF   04,W
0876:  MOVWF  5F
0877:  MOVF   5E,W
0878:  MOVWF  61
0879:  BTFSC  03.2
087A:  GOTO   094
087B:  MOVF   5D,W
087C:  MOVWF  6A
087D:  MOVF   5C,W
087E:  MOVWF  69
087F:  MOVF   5B,W
0880:  MOVWF  68
0881:  MOVF   5A,W
0882:  MOVWF  67
0883:  CLRF   6E
0884:  CLRF   6D
0885:  MOVLW  20
0886:  MOVWF  6C
0887:  MOVLW  82
0888:  MOVWF  6B
0889:  CALL   000
088A:  MOVF   7A,W
088B:  MOVWF  5D
088C:  MOVF   79,W
088D:  MOVWF  5C
088E:  MOVF   78,W
088F:  MOVWF  5B
0890:  MOVF   77,W
0891:  MOVWF  5A
0892:  DECFSZ 61,F
0893:  GOTO   07B
0894:  MOVF   5D,W
0895:  MOVWF  6A
0896:  MOVF   5C,W
0897:  MOVWF  69
0898:  MOVF   5B,W
0899:  MOVWF  68
089A:  MOVF   5A,W
089B:  MOVWF  67
089C:  MOVF   67,W
089D:  SUBLW  B6
089E:  MOVWF  67
089F:  CLRF   7A
08A0:  MOVF   68,W
08A1:  MOVWF  6B
08A2:  BSF    68.7
08A3:  BCF    03.0
08A4:  RRF    68,F
08A5:  RRF    69,F
08A6:  RRF    6A,F
08A7:  RRF    7A,F
08A8:  RRF    79,F
08A9:  RRF    78,F
08AA:  RRF    77,F
08AB:  DECFSZ 67,F
08AC:  GOTO   0A3
08AD:  BTFSS  6B.7
08AE:  GOTO   0BA
08AF:  COMF   77,F
08B0:  COMF   78,F
08B1:  COMF   79,F
08B2:  COMF   7A,F
08B3:  INCF   77,F
08B4:  BTFSC  03.2
08B5:  INCF   78,F
08B6:  BTFSC  03.2
08B7:  INCF   79,F
08B8:  BTFSC  03.2
08B9:  INCF   7A,F
08BA:  MOVF   7A,W
08BB:  MOVWF  5D
08BC:  MOVF   79,W
08BD:  MOVWF  5C
08BE:  MOVF   78,W
08BF:  MOVWF  5B
08C0:  MOVF   77,W
08C1:  MOVWF  5A
08C2:  BTFSS  5D.7
08C3:  GOTO   0D1
08C4:  DECF   5F,F
08C5:  BSF    5F.5
08C6:  COMF   5A,F
08C7:  COMF   5B,F
08C8:  COMF   5C,F
08C9:  COMF   5D,F
08CA:  INCF   5A,F
08CB:  BTFSC  03.2
08CC:  INCF   5B,F
08CD:  BTFSC  03.2
08CE:  INCF   5C,F
08CF:  BTFSC  03.2
08D0:  INCF   5D,F
08D1:  MOVLW  3B
08D2:  MOVWF  66
08D3:  MOVLW  9A
08D4:  MOVWF  65
08D5:  MOVLW  CA
08D6:  MOVWF  64
08D7:  CLRF   63
08D8:  MOVLW  0A
08D9:  MOVWF  61
08DA:  MOVF   5E,W
08DB:  BTFSC  03.2
08DC:  INCF   5F,F
08DD:  BSF    03.1
08DE:  MOVLW  5A
08DF:  MOVWF  04
08E0:  BCF    03.7
08E1:  MOVF   5D,W
08E2:  MOVWF  6A
08E3:  MOVF   5C,W
08E4:  MOVWF  69
08E5:  MOVF   5B,W
08E6:  MOVWF  68
08E7:  MOVF   5A,W
08E8:  MOVWF  67
08E9:  MOVF   66,W
08EA:  MOVWF  6E
08EB:  MOVF   65,W
08EC:  MOVWF  6D
08ED:  MOVF   64,W
08EE:  MOVWF  6C
08EF:  MOVF   63,W
08F0:  MOVWF  6B
08F1:  BTFSC  03.1
08F2:  GOTO   0F6
08F3:  MOVLW  6F
08F4:  MOVWF  04
08F5:  BCF    03.7
08F6:  CLRF   77
08F7:  CLRF   78
08F8:  CLRF   79
08F9:  CLRF   7A
08FA:  CLRF   6F
08FB:  CLRF   70
08FC:  CLRF   71
08FD:  CLRF   72
08FE:  MOVF   6E,W
08FF:  IORWF  6D,W
0900:  IORWF  6C,W
0901:  IORWF  6B,W
0902:  BTFSC  03.2
0903:  GOTO   134
0904:  MOVLW  20
0905:  MOVWF  73
0906:  BCF    03.0
0907:  RLF    67,F
0908:  RLF    68,F
0909:  RLF    69,F
090A:  RLF    6A,F
090B:  RLF    6F,F
090C:  RLF    70,F
090D:  RLF    71,F
090E:  RLF    72,F
090F:  MOVF   6E,W
0910:  SUBWF  72,W
0911:  BTFSS  03.2
0912:  GOTO   11D
0913:  MOVF   6D,W
0914:  SUBWF  71,W
0915:  BTFSS  03.2
0916:  GOTO   11D
0917:  MOVF   6C,W
0918:  SUBWF  70,W
0919:  BTFSS  03.2
091A:  GOTO   11D
091B:  MOVF   6B,W
091C:  SUBWF  6F,W
091D:  BTFSS  03.0
091E:  GOTO   12E
091F:  MOVF   6B,W
0920:  SUBWF  6F,F
0921:  MOVF   6C,W
0922:  BTFSS  03.0
0923:  INCFSZ 6C,W
0924:  SUBWF  70,F
0925:  MOVF   6D,W
0926:  BTFSS  03.0
0927:  INCFSZ 6D,W
0928:  SUBWF  71,F
0929:  MOVF   6E,W
092A:  BTFSS  03.0
092B:  INCFSZ 6E,W
092C:  SUBWF  72,F
092D:  BSF    03.0
092E:  RLF    77,F
092F:  RLF    78,F
0930:  RLF    79,F
0931:  RLF    7A,F
0932:  DECFSZ 73,F
0933:  GOTO   106
0934:  MOVF   6F,W
0935:  MOVWF  00
0936:  INCF   04,F
0937:  MOVF   70,W
0938:  MOVWF  00
0939:  INCF   04,F
093A:  MOVF   71,W
093B:  MOVWF  00
093C:  INCF   04,F
093D:  MOVF   72,W
093E:  MOVWF  00
093F:  MOVF   78,W
0940:  MOVF   77,F
0941:  BTFSS  03.2
0942:  GOTO   156
0943:  INCF   5E,W
0944:  SUBWF  61,W
0945:  BTFSC  03.2
0946:  GOTO   156
0947:  MOVF   5F,W
0948:  BTFSC  03.2
0949:  GOTO   158
094A:  ANDLW  0F
094B:  SUBWF  61,W
094C:  BTFSC  03.2
094D:  GOTO   150
094E:  BTFSC  03.0
094F:  GOTO   190
0950:  BTFSC  5F.7
0951:  GOTO   190
0952:  BTFSC  5F.6
0953:  GOTO   158
0954:  MOVLW  20
0955:  GOTO   18A
0956:  MOVLW  20
0957:  ANDWF  5F,F
0958:  BTFSS  5F.5
0959:  GOTO   168
095A:  BCF    5F.5
095B:  MOVF   5E,W
095C:  BTFSS  03.2
095D:  DECF   5F,F
095E:  MOVF   77,W
095F:  MOVWF  5F
0960:  MOVLW  2D
0961:  MOVWF  67
0962:  BCF    0A.3
0963:  CALL   102
0964:  BSF    0A.3
0965:  MOVF   5F,W
0966:  MOVWF  77
0967:  CLRF   5F
0968:  MOVF   5E,W
0969:  SUBWF  61,W
096A:  BTFSS  03.2
096B:  GOTO   178
096C:  MOVF   77,W
096D:  MOVWF  5F
096E:  MOVLW  2E
096F:  MOVWF  67
0970:  BCF    0A.3
0971:  CALL   102
0972:  BSF    0A.3
0973:  MOVF   5F,W
0974:  MOVWF  77
0975:  MOVLW  20
0976:  ANDWF  5F,F
0977:  MOVLW  00
0978:  MOVLW  30
0979:  BTFSS  5F.5
097A:  GOTO   18A
097B:  BCF    5F.5
097C:  MOVF   5E,W
097D:  BTFSS  03.2
097E:  DECF   5F,F
097F:  MOVF   77,W
0980:  MOVWF  5F
0981:  MOVLW  2D
0982:  MOVWF  67
0983:  BCF    0A.3
0984:  CALL   102
0985:  BSF    0A.3
0986:  MOVF   5F,W
0987:  MOVWF  77
0988:  CLRF   5F
0989:  MOVLW  30
098A:  ADDWF  77,F
098B:  MOVF   77,W
098C:  MOVWF  67
098D:  BCF    0A.3
098E:  CALL   102
098F:  BSF    0A.3
0990:  BCF    03.1
0991:  MOVF   66,W
0992:  MOVWF  6A
0993:  MOVF   65,W
0994:  MOVWF  69
0995:  MOVF   64,W
0996:  MOVWF  68
0997:  MOVF   63,W
0998:  MOVWF  67
0999:  CLRF   6E
099A:  CLRF   6D
099B:  CLRF   6C
099C:  MOVLW  0A
099D:  MOVWF  6B
099E:  BTFSC  03.1
099F:  GOTO   1A3
09A0:  MOVLW  6F
09A1:  MOVWF  04
09A2:  BCF    03.7
09A3:  CLRF   77
09A4:  CLRF   78
09A5:  CLRF   79
09A6:  CLRF   7A
09A7:  CLRF   6F
09A8:  CLRF   70
09A9:  CLRF   71
09AA:  CLRF   72
09AB:  MOVF   6E,W
09AC:  IORWF  6D,W
09AD:  IORWF  6C,W
09AE:  IORWF  6B,W
09AF:  BTFSC  03.2
09B0:  GOTO   1E1
09B1:  MOVLW  20
09B2:  MOVWF  73
09B3:  BCF    03.0
09B4:  RLF    67,F
09B5:  RLF    68,F
09B6:  RLF    69,F
09B7:  RLF    6A,F
09B8:  RLF    6F,F
09B9:  RLF    70,F
09BA:  RLF    71,F
09BB:  RLF    72,F
09BC:  MOVF   6E,W
09BD:  SUBWF  72,W
09BE:  BTFSS  03.2
09BF:  GOTO   1CA
09C0:  MOVF   6D,W
09C1:  SUBWF  71,W
09C2:  BTFSS  03.2
09C3:  GOTO   1CA
09C4:  MOVF   6C,W
09C5:  SUBWF  70,W
09C6:  BTFSS  03.2
09C7:  GOTO   1CA
09C8:  MOVF   6B,W
09C9:  SUBWF  6F,W
09CA:  BTFSS  03.0
09CB:  GOTO   1DB
09CC:  MOVF   6B,W
09CD:  SUBWF  6F,F
09CE:  MOVF   6C,W
09CF:  BTFSS  03.0
09D0:  INCFSZ 6C,W
09D1:  SUBWF  70,F
09D2:  MOVF   6D,W
09D3:  BTFSS  03.0
09D4:  INCFSZ 6D,W
09D5:  SUBWF  71,F
09D6:  MOVF   6E,W
09D7:  BTFSS  03.0
09D8:  INCFSZ 6E,W
09D9:  SUBWF  72,F
09DA:  BSF    03.0
09DB:  RLF    77,F
09DC:  RLF    78,F
09DD:  RLF    79,F
09DE:  RLF    7A,F
09DF:  DECFSZ 73,F
09E0:  GOTO   1B3
09E1:  MOVF   6F,W
09E2:  MOVWF  00
09E3:  INCF   04,F
09E4:  MOVF   70,W
09E5:  MOVWF  00
09E6:  INCF   04,F
09E7:  MOVF   71,W
09E8:  MOVWF  00
09E9:  INCF   04,F
09EA:  MOVF   72,W
09EB:  MOVWF  00
09EC:  MOVF   7A,W
09ED:  MOVWF  66
09EE:  MOVF   79,W
09EF:  MOVWF  65
09F0:  MOVF   78,W
09F1:  MOVWF  64
09F2:  MOVF   77,W
09F3:  MOVWF  63
09F4:  DECFSZ 61,F
09F5:  GOTO   0DD
09F6:  RETURN
*
10A1:  MOVLW  8E
10A2:  MOVWF  77
10A3:  MOVF   5B,W
10A4:  MOVWF  78
10A5:  MOVF   5A,W
10A6:  MOVWF  79
10A7:  CLRF   7A
10A8:  MOVF   78,F
10A9:  BTFSS  03.2
10AA:  GOTO   0B5
10AB:  MOVF   79,W
10AC:  MOVWF  78
10AD:  CLRF   79
10AE:  MOVLW  08
10AF:  SUBWF  77,F
10B0:  MOVF   78,F
10B1:  BTFSS  03.2
10B2:  GOTO   0B5
10B3:  CLRF   77
10B4:  GOTO   0BD
10B5:  BCF    03.0
10B6:  BTFSC  78.7
10B7:  GOTO   0BC
10B8:  RLF    79,F
10B9:  RLF    78,F
10BA:  DECF   77,F
10BB:  GOTO   0B5
10BC:  BCF    78.7
*
10E7:  MOVF   5E,W
10E8:  BTFSC  03.2
10E9:  GOTO   1AC
10EA:  MOVWF  6A
10EB:  MOVF   62,W
10EC:  BTFSC  03.2
10ED:  GOTO   1AC
10EE:  SUBWF  6A,F
10EF:  BTFSS  03.0
10F0:  GOTO   0F6
10F1:  MOVLW  7F
10F2:  ADDWF  6A,F
10F3:  BTFSC  03.0
10F4:  GOTO   1AC
10F5:  GOTO   0FC
10F6:  MOVLW  81
10F7:  SUBWF  6A,F
10F8:  BTFSS  03.0
10F9:  GOTO   1AC
10FA:  BTFSC  03.2
10FB:  GOTO   1AC
10FC:  MOVF   6A,W
10FD:  MOVWF  77
10FE:  CLRF   78
10FF:  CLRF   79
1100:  CLRF   7A
1101:  CLRF   69
1102:  MOVF   5F,W
1103:  MOVWF  68
1104:  BSF    68.7
1105:  MOVF   60,W
1106:  MOVWF  67
1107:  MOVF   61,W
1108:  MOVWF  66
1109:  MOVLW  19
110A:  MOVWF  6A
110B:  MOVF   65,W
110C:  SUBWF  66,F
110D:  BTFSC  03.0
110E:  GOTO   11F
110F:  MOVLW  01
1110:  SUBWF  67,F
1111:  BTFSC  03.0
1112:  GOTO   11F
1113:  SUBWF  68,F
1114:  BTFSC  03.0
1115:  GOTO   11F
1116:  SUBWF  69,F
1117:  BTFSC  03.0
1118:  GOTO   11F
1119:  INCF   69,F
111A:  INCF   68,F
111B:  INCF   67,F
111C:  MOVF   65,W
111D:  ADDWF  66,F
111E:  GOTO   151
111F:  MOVF   64,W
1120:  SUBWF  67,F
1121:  BTFSC  03.0
1122:  GOTO   13A
1123:  MOVLW  01
1124:  SUBWF  68,F
1125:  BTFSC  03.0
1126:  GOTO   13A
1127:  SUBWF  69,F
1128:  BTFSC  03.0
1129:  GOTO   13A
112A:  INCF   69,F
112B:  INCF   68,F
112C:  MOVF   64,W
112D:  ADDWF  67,F
112E:  MOVF   65,W
112F:  ADDWF  66,F
1130:  BTFSS  03.0
1131:  GOTO   151
1132:  INCF   67,F
1133:  BTFSS  03.2
1134:  GOTO   151
1135:  INCF   68,F
1136:  BTFSS  03.2
1137:  GOTO   151
1138:  INCF   69,F
1139:  GOTO   151
113A:  MOVF   63,W
113B:  IORLW  80
113C:  SUBWF  68,F
113D:  BTFSC  03.0
113E:  GOTO   150
113F:  MOVLW  01
1140:  SUBWF  69,F
1141:  BTFSC  03.0
1142:  GOTO   150
1143:  INCF   69,F
1144:  MOVF   63,W
1145:  IORLW  80
1146:  ADDWF  68,F
1147:  MOVF   64,W
1148:  ADDWF  67,F
1149:  BTFSS  03.0
114A:  GOTO   12E
114B:  INCF   68,F
114C:  BTFSS  03.2
114D:  GOTO   12E
114E:  INCF   69,F
114F:  GOTO   12E
1150:  BSF    7A.0
1151:  DECFSZ 6A,F
1152:  GOTO   154
1153:  GOTO   15F
1154:  BCF    03.0
1155:  RLF    66,F
1156:  RLF    67,F
1157:  RLF    68,F
1158:  RLF    69,F
1159:  BCF    03.0
115A:  RLF    7A,F
115B:  RLF    79,F
115C:  RLF    78,F
115D:  RLF    6B,F
115E:  GOTO   10B
115F:  BTFSS  6B.0
1160:  GOTO   167
1161:  BCF    03.0
1162:  RRF    78,F
1163:  RRF    79,F
1164:  RRF    7A,F
1165:  RRF    6B,F
1166:  GOTO   16A
1167:  DECF   77,F
1168:  BTFSC  03.2
1169:  GOTO   1AC
116A:  BTFSC  6B.7
116B:  GOTO   193
116C:  BCF    03.0
116D:  RLF    66,F
116E:  RLF    67,F
116F:  RLF    68,F
1170:  RLF    69,F
1171:  MOVF   65,W
1172:  SUBWF  66,F
1173:  BTFSC  03.0
1174:  GOTO   17F
1175:  MOVLW  01
1176:  SUBWF  67,F
1177:  BTFSC  03.0
1178:  GOTO   17F
1179:  SUBWF  68,F
117A:  BTFSC  03.0
117B:  GOTO   17F
117C:  SUBWF  69,F
117D:  BTFSS  03.0
117E:  GOTO   1A2
117F:  MOVF   64,W
1180:  SUBWF  67,F
1181:  BTFSC  03.0
1182:  GOTO   18A
1183:  MOVLW  01
1184:  SUBWF  68,F
1185:  BTFSC  03.0
1186:  GOTO   18A
1187:  SUBWF  69,F
1188:  BTFSS  03.0
1189:  GOTO   1A2
118A:  MOVF   63,W
118B:  IORLW  80
118C:  SUBWF  68,F
118D:  BTFSC  03.0
118E:  GOTO   193
118F:  MOVLW  01
1190:  SUBWF  69,F
1191:  BTFSS  03.0
1192:  GOTO   1A2
1193:  INCF   7A,F
1194:  BTFSS  03.2
1195:  GOTO   1A2
1196:  INCF   79,F
1197:  BTFSS  03.2
1198:  GOTO   1A2
1199:  INCF   78,F
119A:  BTFSS  03.2
119B:  GOTO   1A2
119C:  INCF   77,F
119D:  BTFSC  03.2
119E:  GOTO   1AC
119F:  RRF    78,F
11A0:  RRF    79,F
11A1:  RRF    7A,F
11A2:  MOVF   5F,W
11A3:  MOVWF  6A
11A4:  MOVF   63,W
11A5:  XORWF  6A,F
11A6:  BTFSS  6A.7
11A7:  GOTO   1AA
11A8:  BSF    78.7
11A9:  GOTO   1B0
11AA:  BCF    78.7
11AB:  GOTO   1B0
11AC:  CLRF   77
11AD:  CLRF   78
11AE:  CLRF   79
11AF:  CLRF   7A
*
1266:  MOVF   0B,W
1267:  MOVWF  5B
1268:  BCF    0B.7
1269:  BSF    03.5
126A:  BSF    03.6
126B:  BSF    0C.7
126C:  BSF    0C.0
126D:  NOP
126E:  NOP
126F:  BCF    03.5
1270:  BCF    03.6
1271:  BTFSC  5B.7
1272:  BSF    0B.7
1273:  BTFSC  03.0
1274:  GOTO   29F
1275:  BSF    03.6
1276:  MOVF   0C,W
1277:  ANDLW  7F
1278:  BCF    03.6
1279:  MOVWF  5B
127A:  BSF    03.6
127B:  MOVF   0D,W
127C:  BCF    03.6
127D:  MOVWF  5C
127E:  BSF    03.6
127F:  MOVF   0F,W
1280:  BCF    03.6
1281:  MOVWF  5D
1282:  MOVF   5B,W
1283:  MOVWF  67
1284:  BCF    0A.4
1285:  CALL   102
1286:  BSF    0A.4
1287:  MOVF   5C,W
1288:  BSF    03.6
1289:  MOVWF  0D
128A:  BCF    03.6
128B:  MOVF   5D,W
128C:  BSF    03.6
128D:  MOVWF  0F
128E:  BCF    03.6
128F:  MOVF   0B,W
1290:  MOVWF  5E
1291:  BCF    0B.7
1292:  BSF    03.5
1293:  BSF    03.6
1294:  BSF    0C.7
1295:  BSF    0C.0
1296:  NOP
1297:  NOP
1298:  BCF    03.5
1299:  BCF    03.6
129A:  BTFSC  5E.7
129B:  BSF    0B.7
129C:  DECFSZ 5A,F
129D:  GOTO   29F
129E:  GOTO   2C0
129F:  BSF    03.6
12A0:  RLF    0C,W
12A1:  RLF    0E,W
12A2:  ANDLW  7F
12A3:  BCF    03.6
12A4:  MOVWF  5B
12A5:  BSF    03.6
12A6:  MOVF   0D,W
12A7:  BCF    03.6
12A8:  MOVWF  5C
12A9:  BSF    03.6
12AA:  MOVF   0F,W
12AB:  BCF    03.6
12AC:  MOVWF  5D
12AD:  MOVF   5B,W
12AE:  MOVWF  67
12AF:  BCF    0A.4
12B0:  CALL   102
12B1:  BSF    0A.4
12B2:  MOVF   5C,W
12B3:  BSF    03.6
12B4:  MOVWF  0D
12B5:  BCF    03.6
12B6:  MOVF   5D,W
12B7:  BSF    03.6
12B8:  MOVWF  0F
12B9:  INCF   0D,F
12BA:  BTFSC  03.2
12BB:  INCF   0F,F
12BC:  BCF    03.0
12BD:  BCF    03.6
12BE:  DECFSZ 5A,F
12BF:  GOTO   266
*
12DF:  MOVLW  8E
12E0:  MOVWF  77
12E1:  MOVF   5B,W
12E2:  MOVWF  78
12E3:  MOVF   5A,W
12E4:  MOVWF  79
12E5:  CLRF   7A
12E6:  MOVF   78,F
12E7:  BTFSS  03.2
12E8:  GOTO   2F3
12E9:  MOVF   79,W
12EA:  MOVWF  78
12EB:  CLRF   79
12EC:  MOVLW  08
12ED:  SUBWF  77,F
12EE:  MOVF   78,F
12EF:  BTFSS  03.2
12F0:  GOTO   2F3
12F1:  CLRF   77
12F2:  GOTO   2FB
12F3:  BCF    03.0
12F4:  BTFSC  78.7
12F5:  GOTO   2FA
12F6:  RLF    79,F
12F7:  RLF    78,F
12F8:  DECF   77,F
12F9:  GOTO   2F3
12FA:  BCF    78.7
*
13A6:  MOVF   0B,W
13A7:  MOVWF  5B
13A8:  BCF    0B.7
13A9:  BSF    03.5
13AA:  BSF    03.6
13AB:  BSF    0C.7
13AC:  BSF    0C.0
13AD:  NOP
13AE:  NOP
13AF:  BCF    03.5
13B0:  BCF    03.6
13B1:  BTFSC  5B.7
13B2:  BSF    0B.7
13B3:  BTFSC  03.0
13B4:  GOTO   3DF
13B5:  BSF    03.6
13B6:  MOVF   0C,W
13B7:  ANDLW  7F
13B8:  BCF    03.6
13B9:  MOVWF  5B
13BA:  BSF    03.6
13BB:  MOVF   0D,W
13BC:  BCF    03.6
13BD:  MOVWF  5C
13BE:  BSF    03.6
13BF:  MOVF   0F,W
13C0:  BCF    03.6
13C1:  MOVWF  5D
13C2:  MOVF   5B,W
13C3:  MOVWF  67
13C4:  BCF    0A.4
13C5:  CALL   102
13C6:  BSF    0A.4
13C7:  MOVF   5C,W
13C8:  BSF    03.6
13C9:  MOVWF  0D
13CA:  BCF    03.6
13CB:  MOVF   5D,W
13CC:  BSF    03.6
13CD:  MOVWF  0F
13CE:  BCF    03.6
13CF:  MOVF   0B,W
13D0:  MOVWF  5E
13D1:  BCF    0B.7
13D2:  BSF    03.5
13D3:  BSF    03.6
13D4:  BSF    0C.7
13D5:  BSF    0C.0
13D6:  NOP
13D7:  NOP
13D8:  BCF    03.5
13D9:  BCF    03.6
13DA:  BTFSC  5E.7
13DB:  BSF    0B.7
13DC:  DECFSZ 5A,F
13DD:  GOTO   3DF
13DE:  GOTO   400
13DF:  BSF    03.6
13E0:  RLF    0C,W
13E1:  RLF    0E,W
13E2:  ANDLW  7F
13E3:  BCF    03.6
13E4:  MOVWF  5B
13E5:  BSF    03.6
13E6:  MOVF   0D,W
13E7:  BCF    03.6
13E8:  MOVWF  5C
13E9:  BSF    03.6
13EA:  MOVF   0F,W
13EB:  BCF    03.6
13EC:  MOVWF  5D
13ED:  MOVF   5B,W
13EE:  MOVWF  67
13EF:  BCF    0A.4
13F0:  CALL   102
13F1:  BSF    0A.4
13F2:  MOVF   5C,W
13F3:  BSF    03.6
13F4:  MOVWF  0D
13F5:  BCF    03.6
13F6:  MOVF   5D,W
13F7:  BSF    03.6
13F8:  MOVWF  0F
13F9:  INCF   0D,F
13FA:  BTFSC  03.2
13FB:  INCF   0F,F
13FC:  BCF    03.0
13FD:  BCF    03.6
13FE:  DECFSZ 5A,F
13FF:  GOTO   3A6
*
141A:  MOVF   0B,W
141B:  MOVWF  5B
141C:  BCF    0B.7
141D:  BSF    03.5
141E:  BSF    03.6
141F:  BSF    0C.7
1420:  BSF    0C.0
1421:  NOP
1422:  NOP
1423:  BCF    03.5
1424:  BCF    03.6
1425:  BTFSC  5B.7
1426:  BSF    0B.7
1427:  BTFSC  03.0
1428:  GOTO   453
1429:  BSF    03.6
142A:  MOVF   0C,W
142B:  ANDLW  7F
142C:  BCF    03.6
142D:  MOVWF  5B
142E:  BSF    03.6
142F:  MOVF   0D,W
1430:  BCF    03.6
1431:  MOVWF  5C
1432:  BSF    03.6
1433:  MOVF   0F,W
1434:  BCF    03.6
1435:  MOVWF  5D
1436:  MOVF   5B,W
1437:  MOVWF  67
1438:  BCF    0A.4
1439:  CALL   102
143A:  BSF    0A.4
143B:  MOVF   5C,W
143C:  BSF    03.6
143D:  MOVWF  0D
143E:  BCF    03.6
143F:  MOVF   5D,W
1440:  BSF    03.6
1441:  MOVWF  0F
1442:  BCF    03.6
1443:  MOVF   0B,W
1444:  MOVWF  5E
1445:  BCF    0B.7
1446:  BSF    03.5
1447:  BSF    03.6
1448:  BSF    0C.7
1449:  BSF    0C.0
144A:  NOP
144B:  NOP
144C:  BCF    03.5
144D:  BCF    03.6
144E:  BTFSC  5E.7
144F:  BSF    0B.7
1450:  DECFSZ 5A,F
1451:  GOTO   453
1452:  GOTO   474
1453:  BSF    03.6
1454:  RLF    0C,W
1455:  RLF    0E,W
1456:  ANDLW  7F
1457:  BCF    03.6
1458:  MOVWF  5B
1459:  BSF    03.6
145A:  MOVF   0D,W
145B:  BCF    03.6
145C:  MOVWF  5C
145D:  BSF    03.6
145E:  MOVF   0F,W
145F:  BCF    03.6
1460:  MOVWF  5D
1461:  MOVF   5B,W
1462:  MOVWF  67
1463:  BCF    0A.4
1464:  CALL   102
1465:  BSF    0A.4
1466:  MOVF   5C,W
1467:  BSF    03.6
1468:  MOVWF  0D
1469:  BCF    03.6
146A:  MOVF   5D,W
146B:  BSF    03.6
146C:  MOVWF  0F
146D:  INCF   0D,F
146E:  BTFSC  03.2
146F:  INCF   0F,F
1470:  BCF    03.0
1471:  BCF    03.6
1472:  DECFSZ 5A,F
1473:  GOTO   41A
*
148E:  MOVLW  8E
148F:  MOVWF  77
1490:  MOVF   5B,W
1491:  MOVWF  78
1492:  MOVF   5A,W
1493:  MOVWF  79
1494:  CLRF   7A
1495:  MOVF   78,F
1496:  BTFSS  03.2
1497:  GOTO   4A2
1498:  MOVF   79,W
1499:  MOVWF  78
149A:  CLRF   79
149B:  MOVLW  08
149C:  SUBWF  77,F
149D:  MOVF   78,F
149E:  BTFSS  03.2
149F:  GOTO   4A2
14A0:  CLRF   77
14A1:  GOTO   4AA
14A2:  BCF    03.0
14A3:  BTFSC  78.7
14A4:  GOTO   4A9
14A5:  RLF    79,F
14A6:  RLF    78,F
14A7:  DECF   77,F
14A8:  GOTO   4A2
14A9:  BCF    78.7
*
1555:  MOVF   0B,W
1556:  MOVWF  5B
1557:  BCF    0B.7
1558:  BSF    03.5
1559:  BSF    03.6
155A:  BSF    0C.7
155B:  BSF    0C.0
155C:  NOP
155D:  NOP
155E:  BCF    03.5
155F:  BCF    03.6
1560:  BTFSC  5B.7
1561:  BSF    0B.7
1562:  BTFSC  03.0
1563:  GOTO   58E
1564:  BSF    03.6
1565:  MOVF   0C,W
1566:  ANDLW  7F
1567:  BCF    03.6
1568:  MOVWF  5B
1569:  BSF    03.6
156A:  MOVF   0D,W
156B:  BCF    03.6
156C:  MOVWF  5C
156D:  BSF    03.6
156E:  MOVF   0F,W
156F:  BCF    03.6
1570:  MOVWF  5D
1571:  MOVF   5B,W
1572:  MOVWF  67
1573:  BCF    0A.4
1574:  CALL   102
1575:  BSF    0A.4
1576:  MOVF   5C,W
1577:  BSF    03.6
1578:  MOVWF  0D
1579:  BCF    03.6
157A:  MOVF   5D,W
157B:  BSF    03.6
157C:  MOVWF  0F
157D:  BCF    03.6
157E:  MOVF   0B,W
157F:  MOVWF  5E
1580:  BCF    0B.7
1581:  BSF    03.5
1582:  BSF    03.6
1583:  BSF    0C.7
1584:  BSF    0C.0
1585:  NOP
1586:  NOP
1587:  BCF    03.5
1588:  BCF    03.6
1589:  BTFSC  5E.7
158A:  BSF    0B.7
158B:  DECFSZ 5A,F
158C:  GOTO   58E
158D:  GOTO   5AF
158E:  BSF    03.6
158F:  RLF    0C,W
1590:  RLF    0E,W
1591:  ANDLW  7F
1592:  BCF    03.6
1593:  MOVWF  5B
1594:  BSF    03.6
1595:  MOVF   0D,W
1596:  BCF    03.6
1597:  MOVWF  5C
1598:  BSF    03.6
1599:  MOVF   0F,W
159A:  BCF    03.6
159B:  MOVWF  5D
159C:  MOVF   5B,W
159D:  MOVWF  67
159E:  BCF    0A.4
159F:  CALL   102
15A0:  BSF    0A.4
15A1:  MOVF   5C,W
15A2:  BSF    03.6
15A3:  MOVWF  0D
15A4:  BCF    03.6
15A5:  MOVF   5D,W
15A6:  BSF    03.6
15A7:  MOVWF  0F
15A8:  INCF   0D,F
15A9:  BTFSC  03.2
15AA:  INCF   0F,F
15AB:  BCF    03.0
15AC:  BCF    03.6
15AD:  DECFSZ 5A,F
15AE:  GOTO   555
*
15C9:  MOVF   0B,W
15CA:  MOVWF  5B
15CB:  BCF    0B.7
15CC:  BSF    03.5
15CD:  BSF    03.6
15CE:  BSF    0C.7
15CF:  BSF    0C.0
15D0:  NOP
15D1:  NOP
15D2:  BCF    03.5
15D3:  BCF    03.6
15D4:  BTFSC  5B.7
15D5:  BSF    0B.7
15D6:  BTFSC  03.0
15D7:  GOTO   602
15D8:  BSF    03.6
15D9:  MOVF   0C,W
15DA:  ANDLW  7F
15DB:  BCF    03.6
15DC:  MOVWF  5B
15DD:  BSF    03.6
15DE:  MOVF   0D,W
15DF:  BCF    03.6
15E0:  MOVWF  5C
15E1:  BSF    03.6
15E2:  MOVF   0F,W
15E3:  BCF    03.6
15E4:  MOVWF  5D
15E5:  MOVF   5B,W
15E6:  MOVWF  67
15E7:  BCF    0A.4
15E8:  CALL   102
15E9:  BSF    0A.4
15EA:  MOVF   5C,W
15EB:  BSF    03.6
15EC:  MOVWF  0D
15ED:  BCF    03.6
15EE:  MOVF   5D,W
15EF:  BSF    03.6
15F0:  MOVWF  0F
15F1:  BCF    03.6
15F2:  MOVF   0B,W
15F3:  MOVWF  5E
15F4:  BCF    0B.7
15F5:  BSF    03.5
15F6:  BSF    03.6
15F7:  BSF    0C.7
15F8:  BSF    0C.0
15F9:  NOP
15FA:  NOP
15FB:  BCF    03.5
15FC:  BCF    03.6
15FD:  BTFSC  5E.7
15FE:  BSF    0B.7
15FF:  DECFSZ 5A,F
1600:  GOTO   602
1601:  GOTO   623
1602:  BSF    03.6
1603:  RLF    0C,W
1604:  RLF    0E,W
1605:  ANDLW  7F
1606:  BCF    03.6
1607:  MOVWF  5B
1608:  BSF    03.6
1609:  MOVF   0D,W
160A:  BCF    03.6
160B:  MOVWF  5C
160C:  BSF    03.6
160D:  MOVF   0F,W
160E:  BCF    03.6
160F:  MOVWF  5D
1610:  MOVF   5B,W
1611:  MOVWF  67
1612:  BCF    0A.4
1613:  CALL   102
1614:  BSF    0A.4
1615:  MOVF   5C,W
1616:  BSF    03.6
1617:  MOVWF  0D
1618:  BCF    03.6
1619:  MOVF   5D,W
161A:  BSF    03.6
161B:  MOVWF  0F
161C:  INCF   0D,F
161D:  BTFSC  03.2
161E:  INCF   0F,F
161F:  BCF    03.0
1620:  BCF    03.6
1621:  DECFSZ 5A,F
1622:  GOTO   5C9
....................  
.................... #list 
....................  
.................... #device ADC=10                   // establece el convertidor A/D en 10 bits resoluci칩n 
.................... #fuses HS,NOWDT,NOPROTECT,NOLVP, NOPUT, BROWNOUT  // par炅etros f押icos- el匐tricos del controlador 
.................... #use delay(clock=20M)       // 20 MHz establece el reloj a utilizar 
*
00EE:  MOVLW  68
00EF:  MOVWF  04
00F0:  BCF    03.7
00F1:  MOVF   00,W
00F2:  BTFSC  03.2
00F3:  GOTO   101
00F4:  MOVLW  06
00F5:  MOVWF  78
00F6:  CLRF   77
00F7:  DECFSZ 77,F
00F8:  GOTO   0F7
00F9:  DECFSZ 78,F
00FA:  GOTO   0F6
00FB:  MOVLW  7B
00FC:  MOVWF  77
00FD:  DECFSZ 77,F
00FE:  GOTO   0FD
00FF:  DECFSZ 00,F
0100:  GOTO   0F4
0101:  RETURN
.................... #use standard_io(D) 
.................... // utiliza est치ndar rs232 con la configuraci칩n: 
.................... //   transmite por portC.6 y recibe por portC.7 con 9600 bauds 
.................... #use rs232(baud=9600, xmit=PIN_C6, rcv=PIN_C7) 
.................... #define use_portd_lcd true       // establece el PORTD como conexi칩n del display LCD 
.................... #include <lcd.c>                 //biblioteca para control de display LCD. 
.................... /////////////////////////////////////////////////////////////////////////////// 
.................... ////                             LCD.C                                     //// 
.................... ////                 Driver for common LCD modules                         //// 
.................... ////                                                                       //// 
.................... ////  lcd_init()   Must be called before any other function.               //// 
.................... ////                                                                       //// 
.................... ////  lcd_putc(c)  Will display c on the next position of the LCD.         //// 
.................... ////                 \a  Set cursor position to upper left                 //// 
.................... ////                 \f  Clear display, set cursor to upper left           //// 
.................... ////                 \n  Go to start of second line                        //// 
.................... ////                 \b  Move back one position                            //// 
.................... ////              If LCD_EXTENDED_NEWLINE is defined, the \n character     //// 
.................... ////              will erase all remanining characters on the current      //// 
.................... ////              line, and move the cursor to the beginning of the next   //// 
.................... ////              line.                                                    //// 
.................... ////              If LCD_EXTENDED_NEWLINE is defined, the \r character     //// 
.................... ////              will move the cursor to the start of the current         //// 
.................... ////              line.                                                    //// 
.................... ////                                                                       //// 
.................... ////  lcd_gotoxy(x,y) Set write position on LCD (upper left is 1,1)        //// 
.................... ////                                                                       //// 
.................... ////  lcd_getc(x,y)   Returns character at position x,y on LCD             //// 
.................... ////                                                                       //// 
.................... ////  lcd_cursor_on(int1 on)   Turn the cursor on (on=TRUE) or off         //// 
.................... ////              (on=FALSE).                                              //// 
.................... ////                                                                       //// 
.................... ////  lcd_set_cgram_char(w, *p)   Write a custom character to the CGRAM.   //// 
.................... ////                                                                       //// 
.................... ////                                                                       //// 
.................... ////  CONFIGURATION                                                        //// 
.................... ////  The LCD can be configured in one of two ways: a.) port access or     //// 
.................... ////  b.) pin access.  Port access requires the entire 7 bit interface     //// 
.................... ////  connected to one GPIO port, and the data bits (D4:D7 of the LCD)     //// 
.................... ////  connected to sequential pins on the GPIO.  Pin access                //// 
.................... ////  has no requirements, all 7 bits of the control interface can         //// 
.................... ////  can be connected to any GPIO using several ports.                    //// 
.................... ////                                                                       //// 
.................... ////  To use port access, #define LCD_DATA_PORT to the SFR location of     //// 
.................... ////  of the GPIO port that holds the interface, -AND- edit LCD_PIN_MAP    //// 
.................... ////  of this file to configure the pin order.  If you are using a         //// 
.................... ////  baseline PIC (PCB), then LCD_OUTPUT_MAP and LCD_INPUT_MAP also must  //// 
.................... ////  be defined.                                                          //// 
.................... ////                                                                       //// 
.................... ////  Example of port access:                                              //// 
.................... ////     #define LCD_DATA_PORT getenv("SFR:PORTD")                         //// 
.................... ////                                                                       //// 
.................... ////  To use pin access, the following pins must be defined:               //// 
.................... ////     LCD_ENABLE_PIN                                                    //// 
.................... ////     LCD_RS_PIN                                                        //// 
.................... ////     LCD_RW_PIN                                                        //// 
.................... ////     LCD_DATA4                                                         //// 
.................... ////     LCD_DATA5                                                         //// 
.................... ////     LCD_DATA6                                                         //// 
.................... ////     LCD_DATA7                                                         //// 
.................... ////                                                                       //// 
.................... ////  Example of pin access:                                               //// 
.................... ////     #define LCD_ENABLE_PIN  PIN_E0                                    //// 
.................... ////     #define LCD_RS_PIN      PIN_E1                                    //// 
.................... ////     #define LCD_RW_PIN      PIN_E2                                    //// 
.................... ////     #define LCD_DATA4       PIN_D4                                    //// 
.................... ////     #define LCD_DATA5       PIN_D5                                    //// 
.................... ////     #define LCD_DATA6       PIN_D6                                    //// 
.................... ////     #define LCD_DATA7       PIN_D7                                    //// 
.................... ////                                                                       //// 
.................... /////////////////////////////////////////////////////////////////////////////// 
.................... ////        (C) Copyright 1996,2010 Custom Computer Services           //// 
.................... //// This source code may only be used by licensed users of the CCS C  //// 
.................... //// compiler.  This source code may only be distributed to other      //// 
.................... //// licensed users of the CCS C compiler.  No other use, reproduction //// 
.................... //// or distribution is permitted without written permission.          //// 
.................... //// Derivative programs created using this software in object code    //// 
.................... //// form are not restricted in any way.                               //// 
.................... /////////////////////////////////////////////////////////////////////////// 
....................  
.................... #ifndef __LCD_C__ 
.................... #define __LCD_C__ 
....................  
.................... // define the pinout. 
.................... // only required if port access is being used. 
.................... typedef struct   
.................... {                            // This structure is overlayed 
....................    int1 enable;           // on to an I/O port to gain 
....................    int1 rs;               // access to the LCD pins. 
....................    int1 rw;               // The bits are allocated from 
....................    int1 unused;           // low order up.  ENABLE will 
....................    unsigned int     data : 4;         // be LSB pin of that port. 
....................   #if defined(__PCD__)       // The port used will be LCD_DATA_PORT. 
....................    unsigned int    reserved: 8; 
....................   #endif 
.................... } LCD_PIN_MAP; 
....................  
.................... // this is to improve compatability with previous LCD drivers that accepted 
.................... // a define labeled 'use_portb_lcd' that configured the LCD onto port B. 
.................... #if ((defined(use_portb_lcd)) && (use_portb_lcd==TRUE)) 
....................  #define LCD_DATA_PORT getenv("SFR:PORTB") 
.................... #endif 
....................  
.................... #if defined(__PCB__) 
....................    // these definitions only need to be modified for baseline PICs. 
....................    // all other PICs use LCD_PIN_MAP or individual LCD_xxx pin definitions. 
.................... /*                                    EN, RS,   RW,   UNUSED,  DATA  */ 
....................  const LCD_PIN_MAP LCD_OUTPUT_MAP =  {0,  0,    0,    0,       0}; 
....................  const LCD_PIN_MAP LCD_INPUT_MAP =   {0,  0,    0,    0,       0xF}; 
.................... #endif 
....................  
.................... ////////////////////// END CONFIGURATION /////////////////////////////////// 
....................  
.................... #ifndef LCD_ENABLE_PIN 
....................    #define lcd_output_enable(x) lcdlat.enable=x 
....................    #define lcd_enable_tris()   lcdtris.enable=0 
.................... #else 
....................    #define lcd_output_enable(x) output_bit(LCD_ENABLE_PIN, x) 
....................    #define lcd_enable_tris()  output_drive(LCD_ENABLE_PIN) 
.................... #endif 
....................  
.................... #ifndef LCD_RS_PIN 
....................    #define lcd_output_rs(x) lcdlat.rs=x 
....................    #define lcd_rs_tris()   lcdtris.rs=0 
.................... #else 
....................    #define lcd_output_rs(x) output_bit(LCD_RS_PIN, x) 
....................    #define lcd_rs_tris()  output_drive(LCD_RS_PIN) 
.................... #endif 
....................  
.................... #ifndef LCD_RW_PIN 
....................    #define lcd_output_rw(x) lcdlat.rw=x 
....................    #define lcd_rw_tris()   lcdtris.rw=0 
.................... #else 
....................    #define lcd_output_rw(x) output_bit(LCD_RW_PIN, x) 
....................    #define lcd_rw_tris()  output_drive(LCD_RW_PIN) 
.................... #endif 
....................  
.................... // original version of this library incorrectly labeled LCD_DATA0 as LCD_DATA4, 
.................... // LCD_DATA1 as LCD_DATA5, and so on.  this block of code makes the driver 
.................... // compatible with any code written for the original library 
.................... #if (defined(LCD_DATA0) && defined(LCD_DATA1) && defined(LCD_DATA2) && defined(LCD_DATA3) && !defined(LCD_DATA4) && !defined(LCD_DATA5) && !defined(LCD_DATA6) && !defined(LCD_DATA7)) 
....................    #define  LCD_DATA4    LCD_DATA0 
....................    #define  LCD_DATA5    LCD_DATA1 
....................    #define  LCD_DATA6    LCD_DATA2 
....................    #define  LCD_DATA7    LCD_DATA3 
.................... #endif 
....................  
.................... #ifndef LCD_DATA4 
.................... #ifndef LCD_DATA_PORT 
....................    #if defined(__PCB__) 
....................       #define LCD_DATA_PORT      0x06     //portb 
....................       #define set_tris_lcd(x)   set_tris_b(x) 
....................    #else 
....................      #if defined(PIN_D0) 
....................       #define LCD_DATA_PORT      getenv("SFR:PORTD")     //portd 
....................      #else 
....................       #define LCD_DATA_PORT      getenv("SFR:PORTB")     //portb 
....................      #endif 
....................    #endif    
.................... #endif 
....................  
.................... #if defined(__PCB__) 
....................    LCD_PIN_MAP lcd, lcdlat; 
....................    #byte lcd = LCD_DATA_PORT 
....................    #byte lcdlat = LCD_DATA_PORT 
.................... #elif defined(__PCM__) 
....................    LCD_PIN_MAP lcd, lcdlat, lcdtris; 
....................    #byte lcd = LCD_DATA_PORT 
....................    #byte lcdlat = LCD_DATA_PORT 
....................    #byte lcdtris = LCD_DATA_PORT+0x80 
.................... #elif defined(__PCH__) 
....................    LCD_PIN_MAP lcd, lcdlat, lcdtris; 
....................    #byte lcd = LCD_DATA_PORT 
....................    #byte lcdlat = LCD_DATA_PORT+9 
....................    #byte lcdtris = LCD_DATA_PORT+0x12 
.................... #elif defined(__PCD__) 
....................    LCD_PIN_MAP lcd, lcdlat, lcdtris; 
....................    #word lcd = LCD_DATA_PORT 
....................    #word lcdlat = LCD_DATA_PORT+2 
....................    #word lcdtris = LCD_DATA_PORT-0x02 
.................... #endif 
.................... #endif   //LCD_DATA4 not defined 
....................  
.................... #ifndef LCD_TYPE 
....................    #define LCD_TYPE 2           // 0=5x7, 1=5x10, 2=2 lines 
.................... #endif 
....................  
.................... #ifndef LCD_LINE_TWO 
....................    #define LCD_LINE_TWO 0x40    // LCD RAM address for the second line 
.................... #endif 
....................  
.................... #ifndef LCD_LINE_LENGTH 
....................    #define LCD_LINE_LENGTH 20 
.................... #endif 
....................  
.................... unsigned int8 lcd_read_nibble(void); 
....................  
.................... unsigned int8 lcd_read_byte(void) 
.................... { 
....................    unsigned int8 low,high; 
....................  
....................  #if defined(__PCB__) 
....................    set_tris_lcd(LCD_INPUT_MAP); 
....................  #else 
....................   #if (defined(LCD_DATA4) && defined(LCD_DATA5) && defined(LCD_DATA6) && defined(LCD_DATA7)) 
....................    output_float(LCD_DATA4); 
....................    output_float(LCD_DATA5); 
....................    output_float(LCD_DATA6); 
....................    output_float(LCD_DATA7); 
....................   #else 
....................    lcdtris.data = 0xF; 
*
0129:  MOVLW  0F
012A:  BSF    03.5
012B:  ANDWF  08,W
012C:  IORLW  F0
012D:  MOVWF  08
*
0195:  MOVLW  0F
0196:  BSF    03.5
0197:  ANDWF  08,W
0198:  IORLW  F0
0199:  MOVWF  08
*
0215:  MOVLW  0F
0216:  BSF    03.5
0217:  ANDWF  08,W
0218:  IORLW  F0
0219:  MOVWF  08
*
0281:  MOVLW  0F
0282:  BSF    03.5
0283:  ANDWF  08,W
0284:  IORLW  F0
0285:  MOVWF  08
*
02EE:  MOVLW  0F
02EF:  BSF    03.5
02F0:  ANDWF  08,W
02F1:  IORLW  F0
02F2:  MOVWF  08
*
03CF:  MOVLW  0F
03D0:  BSF    03.5
03D1:  ANDWF  08,W
03D2:  IORLW  F0
03D3:  MOVWF  08
*
0451:  MOVLW  0F
0452:  BSF    03.5
0453:  ANDWF  08,W
0454:  IORLW  F0
0455:  MOVWF  08
*
04D4:  MOVLW  0F
04D5:  BSF    03.5
04D6:  ANDWF  08,W
04D7:  IORLW  F0
04D8:  MOVWF  08
*
0557:  MOVLW  0F
0558:  BSF    03.5
0559:  ANDWF  08,W
055A:  IORLW  F0
055B:  MOVWF  08
*
05DB:  MOVLW  0F
05DC:  BSF    03.5
05DD:  ANDWF  08,W
05DE:  IORLW  F0
05DF:  MOVWF  08
*
065D:  MOVLW  0F
065E:  BSF    03.5
065F:  ANDWF  08,W
0660:  IORLW  F0
0661:  MOVWF  08
*
06E0:  MOVLW  0F
06E1:  BSF    03.5
06E2:  ANDWF  08,W
06E3:  IORLW  F0
06E4:  MOVWF  08
*
0763:  MOVLW  0F
0764:  BSF    03.5
0765:  ANDWF  08,W
0766:  IORLW  F0
0767:  MOVWF  08
*
0AC1:  MOVLW  0F
0AC2:  BSF    03.5
0AC3:  ANDWF  08,W
0AC4:  IORLW  F0
0AC5:  MOVWF  08
*
0B42:  MOVLW  0F
0B43:  BSF    03.5
0B44:  ANDWF  08,W
0B45:  IORLW  F0
0B46:  MOVWF  08
*
0BD8:  MOVLW  0F
0BD9:  BSF    03.5
0BDA:  ANDWF  08,W
0BDB:  IORLW  F0
0BDC:  MOVWF  08
*
0C6E:  MOVLW  0F
0C6F:  BSF    03.5
0C70:  ANDWF  08,W
0C71:  IORLW  F0
0C72:  MOVWF  08
*
0D04:  MOVLW  0F
0D05:  BSF    03.5
0D06:  ANDWF  08,W
0D07:  IORLW  F0
0D08:  MOVWF  08
*
0D99:  MOVLW  0F
0D9A:  BSF    03.5
0D9B:  ANDWF  08,W
0D9C:  IORLW  F0
0D9D:  MOVWF  08
*
1019:  MOVLW  0F
101A:  BSF    03.5
101B:  ANDWF  08,W
101C:  IORLW  F0
101D:  MOVWF  08
*
11DB:  MOVLW  0F
11DC:  BSF    03.5
11DD:  ANDWF  08,W
11DE:  IORLW  F0
11DF:  MOVWF  08
*
133B:  MOVLW  0F
133C:  BSF    03.5
133D:  ANDWF  08,W
133E:  IORLW  F0
133F:  MOVWF  08
*
14EA:  MOVLW  0F
14EB:  BSF    03.5
14EC:  ANDWF  08,W
14ED:  IORLW  F0
14EE:  MOVWF  08
....................   #endif 
....................  #endif 
....................          
....................    lcd_output_rw(1); 
*
012E:  BCF    03.5
012F:  BSF    08.2
*
019A:  BCF    03.5
019B:  BSF    08.2
*
021A:  BCF    03.5
021B:  BSF    08.2
*
0286:  BCF    03.5
0287:  BSF    08.2
*
02F3:  BCF    03.5
02F4:  BSF    08.2
*
03D4:  BCF    03.5
03D5:  BSF    08.2
*
0456:  BCF    03.5
0457:  BSF    08.2
*
04D9:  BCF    03.5
04DA:  BSF    08.2
*
055C:  BCF    03.5
055D:  BSF    08.2
*
05E0:  BCF    03.5
05E1:  BSF    08.2
*
0662:  BCF    03.5
0663:  BSF    08.2
*
06E5:  BCF    03.5
06E6:  BSF    08.2
*
0768:  BCF    03.5
0769:  BSF    08.2
*
0AC6:  BCF    03.5
0AC7:  BSF    08.2
*
0B47:  BCF    03.5
0B48:  BSF    08.2
*
0BDD:  BCF    03.5
0BDE:  BSF    08.2
*
0C73:  BCF    03.5
0C74:  BSF    08.2
*
0D09:  BCF    03.5
0D0A:  BSF    08.2
*
0D9E:  BCF    03.5
0D9F:  BSF    08.2
*
101E:  BCF    03.5
101F:  BSF    08.2
*
11E0:  BCF    03.5
11E1:  BSF    08.2
*
1340:  BCF    03.5
1341:  BSF    08.2
*
14EF:  BCF    03.5
14F0:  BSF    08.2
....................    delay_cycles(1); 
*
0130:  NOP
*
019C:  NOP
*
021C:  NOP
*
0288:  NOP
*
02F5:  NOP
*
03D6:  NOP
*
0458:  NOP
*
04DB:  NOP
*
055E:  NOP
*
05E2:  NOP
*
0664:  NOP
*
06E7:  NOP
*
076A:  NOP
*
0AC8:  NOP
*
0B49:  NOP
*
0BDF:  NOP
*
0C75:  NOP
*
0D0B:  NOP
*
0DA0:  NOP
*
1020:  NOP
*
11E2:  NOP
*
1342:  NOP
*
14F1:  NOP
....................    lcd_output_enable(1); 
*
0131:  BSF    08.0
*
019D:  BSF    08.0
*
021D:  BSF    08.0
*
0289:  BSF    08.0
*
02F6:  BSF    08.0
*
03D7:  BSF    08.0
*
0459:  BSF    08.0
*
04DC:  BSF    08.0
*
055F:  BSF    08.0
*
05E3:  BSF    08.0
*
0665:  BSF    08.0
*
06E8:  BSF    08.0
*
076B:  BSF    08.0
*
0AC9:  BSF    08.0
*
0B4A:  BSF    08.0
*
0BE0:  BSF    08.0
*
0C76:  BSF    08.0
*
0D0C:  BSF    08.0
*
0DA1:  BSF    08.0
*
1021:  BSF    08.0
*
11E3:  BSF    08.0
*
1343:  BSF    08.0
*
14F2:  BSF    08.0
....................    delay_cycles(1); 
*
0132:  NOP
*
019E:  NOP
*
021E:  NOP
*
028A:  NOP
*
02F7:  NOP
*
03D8:  NOP
*
045A:  NOP
*
04DD:  NOP
*
0560:  NOP
*
05E4:  NOP
*
0666:  NOP
*
06E9:  NOP
*
076C:  NOP
*
0ACA:  NOP
*
0B4B:  NOP
*
0BE1:  NOP
*
0C77:  NOP
*
0D0D:  NOP
*
0DA2:  NOP
*
1022:  NOP
*
11E4:  NOP
*
1344:  NOP
*
14F3:  NOP
....................    high = lcd_read_nibble(); 
*
0138:  MOVF   78,W
0139:  MOVWF  6F
*
01A4:  MOVF   78,W
01A5:  MOVWF  6F
*
0224:  MOVF   78,W
0225:  MOVWF  6F
*
0290:  MOVF   78,W
0291:  MOVWF  6F
*
02FD:  MOVF   78,W
02FE:  MOVWF  6F
*
03DE:  MOVF   78,W
03DF:  MOVWF  6F
*
0460:  MOVF   78,W
0461:  MOVWF  6F
*
04E3:  MOVF   78,W
04E4:  MOVWF  6F
*
0566:  MOVF   78,W
0567:  MOVWF  6F
*
05EA:  MOVF   78,W
05EB:  MOVWF  6F
*
066C:  MOVF   78,W
066D:  MOVWF  6F
*
06EF:  MOVF   78,W
06F0:  MOVWF  6F
*
0772:  MOVF   78,W
0773:  MOVWF  6F
*
0AD0:  MOVF   78,W
0AD1:  MOVWF  6F
*
0B51:  MOVF   78,W
0B52:  MOVWF  6F
*
0BE7:  MOVF   78,W
0BE8:  MOVWF  6F
*
0C7D:  MOVF   78,W
0C7E:  MOVWF  6F
*
0D13:  MOVF   78,W
0D14:  MOVWF  6F
*
0DA8:  MOVF   78,W
0DA9:  MOVWF  6F
*
1028:  MOVF   78,W
1029:  MOVWF  6F
*
11EA:  MOVF   78,W
11EB:  MOVWF  6F
*
134A:  MOVF   78,W
134B:  MOVWF  6F
*
14F9:  MOVF   78,W
14FA:  MOVWF  6F
....................        
....................    lcd_output_enable(0); 
*
013A:  BCF    08.0
*
01A6:  BCF    08.0
*
0226:  BCF    08.0
*
0292:  BCF    08.0
*
02FF:  BCF    08.0
*
03E0:  BCF    08.0
*
0462:  BCF    08.0
*
04E5:  BCF    08.0
*
0568:  BCF    08.0
*
05EC:  BCF    08.0
*
066E:  BCF    08.0
*
06F1:  BCF    08.0
*
0774:  BCF    08.0
*
0AD2:  BCF    08.0
*
0B53:  BCF    08.0
*
0BE9:  BCF    08.0
*
0C7F:  BCF    08.0
*
0D15:  BCF    08.0
*
0DAA:  BCF    08.0
*
102A:  BCF    08.0
*
11EC:  BCF    08.0
*
134C:  BCF    08.0
*
14FB:  BCF    08.0
....................    delay_cycles(1); 
*
013B:  NOP
*
01A7:  NOP
*
0227:  NOP
*
0293:  NOP
*
0300:  NOP
*
03E1:  NOP
*
0463:  NOP
*
04E6:  NOP
*
0569:  NOP
*
05ED:  NOP
*
066F:  NOP
*
06F2:  NOP
*
0775:  NOP
*
0AD3:  NOP
*
0B54:  NOP
*
0BEA:  NOP
*
0C80:  NOP
*
0D16:  NOP
*
0DAB:  NOP
*
102B:  NOP
*
11ED:  NOP
*
134D:  NOP
*
14FC:  NOP
....................    lcd_output_enable(1); 
*
013C:  BSF    08.0
*
01A8:  BSF    08.0
*
0228:  BSF    08.0
*
0294:  BSF    08.0
*
0301:  BSF    08.0
*
03E2:  BSF    08.0
*
0464:  BSF    08.0
*
04E7:  BSF    08.0
*
056A:  BSF    08.0
*
05EE:  BSF    08.0
*
0670:  BSF    08.0
*
06F3:  BSF    08.0
*
0776:  BSF    08.0
*
0AD4:  BSF    08.0
*
0B55:  BSF    08.0
*
0BEB:  BSF    08.0
*
0C81:  BSF    08.0
*
0D17:  BSF    08.0
*
0DAC:  BSF    08.0
*
102C:  BSF    08.0
*
11EE:  BSF    08.0
*
134E:  BSF    08.0
*
14FD:  BSF    08.0
....................    delay_us(1); 
*
013D:  GOTO   13E
013E:  GOTO   13F
013F:  NOP
*
01A9:  GOTO   1AA
01AA:  GOTO   1AB
01AB:  NOP
*
0229:  GOTO   22A
022A:  GOTO   22B
022B:  NOP
*
0295:  GOTO   296
0296:  GOTO   297
0297:  NOP
*
0302:  GOTO   303
0303:  GOTO   304
0304:  NOP
*
03E3:  GOTO   3E4
03E4:  GOTO   3E5
03E5:  NOP
*
0465:  GOTO   466
0466:  GOTO   467
0467:  NOP
*
04E8:  GOTO   4E9
04E9:  GOTO   4EA
04EA:  NOP
*
056B:  GOTO   56C
056C:  GOTO   56D
056D:  NOP
*
05EF:  GOTO   5F0
05F0:  GOTO   5F1
05F1:  NOP
*
0671:  GOTO   672
0672:  GOTO   673
0673:  NOP
*
06F4:  GOTO   6F5
06F5:  GOTO   6F6
06F6:  NOP
*
0777:  GOTO   778
0778:  GOTO   779
0779:  NOP
*
0AD5:  GOTO   2D6
0AD6:  GOTO   2D7
0AD7:  NOP
*
0B56:  GOTO   357
0B57:  GOTO   358
0B58:  NOP
*
0BEC:  GOTO   3ED
0BED:  GOTO   3EE
0BEE:  NOP
*
0C82:  GOTO   483
0C83:  GOTO   484
0C84:  NOP
*
0D18:  GOTO   519
0D19:  GOTO   51A
0D1A:  NOP
*
0DAD:  GOTO   5AE
0DAE:  GOTO   5AF
0DAF:  NOP
*
102D:  GOTO   02E
102E:  GOTO   02F
102F:  NOP
*
11EF:  GOTO   1F0
11F0:  GOTO   1F1
11F1:  NOP
*
134F:  GOTO   350
1350:  GOTO   351
1351:  NOP
*
14FE:  GOTO   4FF
14FF:  GOTO   500
1500:  NOP
....................    low = lcd_read_nibble(); 
*
0145:  MOVF   78,W
0146:  MOVWF  6E
*
01B1:  MOVF   78,W
01B2:  MOVWF  6E
*
0231:  MOVF   78,W
0232:  MOVWF  6E
*
029D:  MOVF   78,W
029E:  MOVWF  6E
*
030A:  MOVF   78,W
030B:  MOVWF  6E
*
03EB:  MOVF   78,W
03EC:  MOVWF  6E
*
046D:  MOVF   78,W
046E:  MOVWF  6E
*
04F0:  MOVF   78,W
04F1:  MOVWF  6E
*
0573:  MOVF   78,W
0574:  MOVWF  6E
*
05F7:  MOVF   78,W
05F8:  MOVWF  6E
*
0679:  MOVF   78,W
067A:  MOVWF  6E
*
06FC:  MOVF   78,W
06FD:  MOVWF  6E
*
077F:  MOVF   78,W
0780:  MOVWF  6E
*
0ADD:  MOVF   78,W
0ADE:  MOVWF  6E
*
0B5E:  MOVF   78,W
0B5F:  MOVWF  6E
*
0BF4:  MOVF   78,W
0BF5:  MOVWF  6E
*
0C8A:  MOVF   78,W
0C8B:  MOVWF  6E
*
0D20:  MOVF   78,W
0D21:  MOVWF  6E
*
0DB5:  MOVF   78,W
0DB6:  MOVWF  6E
*
1035:  MOVF   78,W
1036:  MOVWF  6E
*
11F7:  MOVF   78,W
11F8:  MOVWF  6E
*
1357:  MOVF   78,W
1358:  MOVWF  6E
*
1506:  MOVF   78,W
1507:  MOVWF  6E
....................        
....................    lcd_output_enable(0); 
*
0147:  BCF    08.0
*
01B3:  BCF    08.0
*
0233:  BCF    08.0
*
029F:  BCF    08.0
*
030C:  BCF    08.0
*
03ED:  BCF    08.0
*
046F:  BCF    08.0
*
04F2:  BCF    08.0
*
0575:  BCF    08.0
*
05F9:  BCF    08.0
*
067B:  BCF    08.0
*
06FE:  BCF    08.0
*
0781:  BCF    08.0
*
0ADF:  BCF    08.0
*
0B60:  BCF    08.0
*
0BF6:  BCF    08.0
*
0C8C:  BCF    08.0
*
0D22:  BCF    08.0
*
0DB7:  BCF    08.0
*
1037:  BCF    08.0
*
11F9:  BCF    08.0
*
1359:  BCF    08.0
*
1508:  BCF    08.0
....................  
....................  #if defined(__PCB__) 
....................    set_tris_lcd(LCD_OUTPUT_MAP); 
....................  #else 
....................   #if (defined(LCD_DATA4) && defined(LCD_DATA5) && defined(LCD_DATA6) && defined(LCD_DATA7)) 
....................    output_drive(LCD_DATA4); 
....................    output_drive(LCD_DATA5); 
....................    output_drive(LCD_DATA6); 
....................    output_drive(LCD_DATA7); 
....................   #else 
....................    lcdtris.data = 0x0; 
*
0148:  MOVLW  0F
0149:  BSF    03.5
014A:  ANDWF  08,W
014B:  MOVWF  08
*
01B4:  MOVLW  0F
01B5:  BSF    03.5
01B6:  ANDWF  08,W
01B7:  MOVWF  08
*
0234:  MOVLW  0F
0235:  BSF    03.5
0236:  ANDWF  08,W
0237:  MOVWF  08
*
02A0:  MOVLW  0F
02A1:  BSF    03.5
02A2:  ANDWF  08,W
02A3:  MOVWF  08
*
030D:  MOVLW  0F
030E:  BSF    03.5
030F:  ANDWF  08,W
0310:  MOVWF  08
*
03EE:  MOVLW  0F
03EF:  BSF    03.5
03F0:  ANDWF  08,W
03F1:  MOVWF  08
*
0470:  MOVLW  0F
0471:  BSF    03.5
0472:  ANDWF  08,W
0473:  MOVWF  08
*
04F3:  MOVLW  0F
04F4:  BSF    03.5
04F5:  ANDWF  08,W
04F6:  MOVWF  08
*
0576:  MOVLW  0F
0577:  BSF    03.5
0578:  ANDWF  08,W
0579:  MOVWF  08
*
05FA:  MOVLW  0F
05FB:  BSF    03.5
05FC:  ANDWF  08,W
05FD:  MOVWF  08
*
067C:  MOVLW  0F
067D:  BSF    03.5
067E:  ANDWF  08,W
067F:  MOVWF  08
*
06FF:  MOVLW  0F
0700:  BSF    03.5
0701:  ANDWF  08,W
0702:  MOVWF  08
*
0782:  MOVLW  0F
0783:  BSF    03.5
0784:  ANDWF  08,W
0785:  MOVWF  08
*
0AE0:  MOVLW  0F
0AE1:  BSF    03.5
0AE2:  ANDWF  08,W
0AE3:  MOVWF  08
*
0B61:  MOVLW  0F
0B62:  BSF    03.5
0B63:  ANDWF  08,W
0B64:  MOVWF  08
*
0BF7:  MOVLW  0F
0BF8:  BSF    03.5
0BF9:  ANDWF  08,W
0BFA:  MOVWF  08
*
0C8D:  MOVLW  0F
0C8E:  BSF    03.5
0C8F:  ANDWF  08,W
0C90:  MOVWF  08
*
0D23:  MOVLW  0F
0D24:  BSF    03.5
0D25:  ANDWF  08,W
0D26:  MOVWF  08
*
0DB8:  MOVLW  0F
0DB9:  BSF    03.5
0DBA:  ANDWF  08,W
0DBB:  MOVWF  08
*
1038:  MOVLW  0F
1039:  BSF    03.5
103A:  ANDWF  08,W
103B:  MOVWF  08
*
11FA:  MOVLW  0F
11FB:  BSF    03.5
11FC:  ANDWF  08,W
11FD:  MOVWF  08
*
135A:  MOVLW  0F
135B:  BSF    03.5
135C:  ANDWF  08,W
135D:  MOVWF  08
*
1509:  MOVLW  0F
150A:  BSF    03.5
150B:  ANDWF  08,W
150C:  MOVWF  08
....................   #endif 
....................  #endif 
....................  
....................    return( (high<<4) | low); 
*
014C:  BCF    03.5
014D:  SWAPF  6F,W
014E:  MOVWF  77
014F:  MOVLW  F0
0150:  ANDWF  77,F
0151:  MOVF   77,W
0152:  IORWF  6E,W
0153:  MOVWF  78
*
01B8:  BCF    03.5
01B9:  SWAPF  6F,W
01BA:  MOVWF  77
01BB:  MOVLW  F0
01BC:  ANDWF  77,F
01BD:  MOVF   77,W
01BE:  IORWF  6E,W
01BF:  MOVWF  78
*
0238:  BCF    03.5
0239:  SWAPF  6F,W
023A:  MOVWF  77
023B:  MOVLW  F0
023C:  ANDWF  77,F
023D:  MOVF   77,W
023E:  IORWF  6E,W
023F:  MOVWF  78
*
02A4:  BCF    03.5
02A5:  SWAPF  6F,W
02A6:  MOVWF  77
02A7:  MOVLW  F0
02A8:  ANDWF  77,F
02A9:  MOVF   77,W
02AA:  IORWF  6E,W
02AB:  MOVWF  78
*
0311:  BCF    03.5
0312:  SWAPF  6F,W
0313:  MOVWF  77
0314:  MOVLW  F0
0315:  ANDWF  77,F
0316:  MOVF   77,W
0317:  IORWF  6E,W
0318:  MOVWF  78
*
03F2:  BCF    03.5
03F3:  SWAPF  6F,W
03F4:  MOVWF  77
03F5:  MOVLW  F0
03F6:  ANDWF  77,F
03F7:  MOVF   77,W
03F8:  IORWF  6E,W
03F9:  MOVWF  78
*
0474:  BCF    03.5
0475:  SWAPF  6F,W
0476:  MOVWF  77
0477:  MOVLW  F0
0478:  ANDWF  77,F
0479:  MOVF   77,W
047A:  IORWF  6E,W
047B:  MOVWF  78
*
04F7:  BCF    03.5
04F8:  SWAPF  6F,W
04F9:  MOVWF  77
04FA:  MOVLW  F0
04FB:  ANDWF  77,F
04FC:  MOVF   77,W
04FD:  IORWF  6E,W
04FE:  MOVWF  78
*
057A:  BCF    03.5
057B:  SWAPF  6F,W
057C:  MOVWF  77
057D:  MOVLW  F0
057E:  ANDWF  77,F
057F:  MOVF   77,W
0580:  IORWF  6E,W
0581:  MOVWF  78
*
05FE:  BCF    03.5
05FF:  SWAPF  6F,W
0600:  MOVWF  77
0601:  MOVLW  F0
0602:  ANDWF  77,F
0603:  MOVF   77,W
0604:  IORWF  6E,W
0605:  MOVWF  78
*
0680:  BCF    03.5
0681:  SWAPF  6F,W
0682:  MOVWF  77
0683:  MOVLW  F0
0684:  ANDWF  77,F
0685:  MOVF   77,W
0686:  IORWF  6E,W
0687:  MOVWF  78
*
0703:  BCF    03.5
0704:  SWAPF  6F,W
0705:  MOVWF  77
0706:  MOVLW  F0
0707:  ANDWF  77,F
0708:  MOVF   77,W
0709:  IORWF  6E,W
070A:  MOVWF  78
*
0786:  BCF    03.5
0787:  SWAPF  6F,W
0788:  MOVWF  77
0789:  MOVLW  F0
078A:  ANDWF  77,F
078B:  MOVF   77,W
078C:  IORWF  6E,W
078D:  MOVWF  78
*
0AE4:  BCF    03.5
0AE5:  SWAPF  6F,W
0AE6:  MOVWF  77
0AE7:  MOVLW  F0
0AE8:  ANDWF  77,F
0AE9:  MOVF   77,W
0AEA:  IORWF  6E,W
0AEB:  MOVWF  78
*
0B65:  BCF    03.5
0B66:  SWAPF  6F,W
0B67:  MOVWF  77
0B68:  MOVLW  F0
0B69:  ANDWF  77,F
0B6A:  MOVF   77,W
0B6B:  IORWF  6E,W
0B6C:  MOVWF  78
*
0BFB:  BCF    03.5
0BFC:  SWAPF  6F,W
0BFD:  MOVWF  77
0BFE:  MOVLW  F0
0BFF:  ANDWF  77,F
0C00:  MOVF   77,W
0C01:  IORWF  6E,W
0C02:  MOVWF  78
*
0C91:  BCF    03.5
0C92:  SWAPF  6F,W
0C93:  MOVWF  77
0C94:  MOVLW  F0
0C95:  ANDWF  77,F
0C96:  MOVF   77,W
0C97:  IORWF  6E,W
0C98:  MOVWF  78
*
0D27:  BCF    03.5
0D28:  SWAPF  6F,W
0D29:  MOVWF  77
0D2A:  MOVLW  F0
0D2B:  ANDWF  77,F
0D2C:  MOVF   77,W
0D2D:  IORWF  6E,W
0D2E:  MOVWF  78
*
0DBC:  BCF    03.5
0DBD:  SWAPF  6F,W
0DBE:  MOVWF  77
0DBF:  MOVLW  F0
0DC0:  ANDWF  77,F
0DC1:  MOVF   77,W
0DC2:  IORWF  6E,W
0DC3:  MOVWF  78
*
103C:  BCF    03.5
103D:  SWAPF  6F,W
103E:  MOVWF  77
103F:  MOVLW  F0
1040:  ANDWF  77,F
1041:  MOVF   77,W
1042:  IORWF  6E,W
1043:  MOVWF  78
*
11FE:  BCF    03.5
11FF:  SWAPF  6F,W
1200:  MOVWF  77
1201:  MOVLW  F0
1202:  ANDWF  77,F
1203:  MOVF   77,W
1204:  IORWF  6E,W
1205:  MOVWF  78
*
135E:  BCF    03.5
135F:  SWAPF  6F,W
1360:  MOVWF  77
1361:  MOVLW  F0
1362:  ANDWF  77,F
1363:  MOVF   77,W
1364:  IORWF  6E,W
1365:  MOVWF  78
*
150D:  BCF    03.5
150E:  SWAPF  6F,W
150F:  MOVWF  77
1510:  MOVLW  F0
1511:  ANDWF  77,F
1512:  MOVF   77,W
1513:  IORWF  6E,W
1514:  MOVWF  78
.................... } 
....................  
.................... unsigned int8 lcd_read_nibble(void) 
.................... { 
....................   #if (defined(LCD_DATA4) && defined(LCD_DATA5) && defined(LCD_DATA6) && defined(LCD_DATA7)) 
....................    unsigned int8 n = 0x00; 
....................  
....................    /* Read the data port */ 
....................    n |= input(LCD_DATA4); 
....................    n |= input(LCD_DATA5) << 1; 
....................    n |= input(LCD_DATA6) << 2; 
....................    n |= input(LCD_DATA7) << 3; 
....................     
....................    return(n); 
....................   #else 
....................    return(lcd.data); 
*
0133:  MOVF   08,W
0134:  MOVWF  77
0135:  SWAPF  08,W
0136:  ANDLW  0F
0137:  MOVWF  78
*
0140:  MOVF   08,W
0141:  MOVWF  77
0142:  SWAPF  08,W
0143:  ANDLW  0F
0144:  MOVWF  78
*
019F:  MOVF   08,W
01A0:  MOVWF  77
01A1:  SWAPF  08,W
01A2:  ANDLW  0F
01A3:  MOVWF  78
*
01AC:  MOVF   08,W
01AD:  MOVWF  77
01AE:  SWAPF  08,W
01AF:  ANDLW  0F
01B0:  MOVWF  78
*
021F:  MOVF   08,W
0220:  MOVWF  77
0221:  SWAPF  08,W
0222:  ANDLW  0F
0223:  MOVWF  78
*
022C:  MOVF   08,W
022D:  MOVWF  77
022E:  SWAPF  08,W
022F:  ANDLW  0F
0230:  MOVWF  78
*
028B:  MOVF   08,W
028C:  MOVWF  77
028D:  SWAPF  08,W
028E:  ANDLW  0F
028F:  MOVWF  78
*
0298:  MOVF   08,W
0299:  MOVWF  77
029A:  SWAPF  08,W
029B:  ANDLW  0F
029C:  MOVWF  78
*
02F8:  MOVF   08,W
02F9:  MOVWF  77
02FA:  SWAPF  08,W
02FB:  ANDLW  0F
02FC:  MOVWF  78
*
0305:  MOVF   08,W
0306:  MOVWF  77
0307:  SWAPF  08,W
0308:  ANDLW  0F
0309:  MOVWF  78
*
03D9:  MOVF   08,W
03DA:  MOVWF  77
03DB:  SWAPF  08,W
03DC:  ANDLW  0F
03DD:  MOVWF  78
*
03E6:  MOVF   08,W
03E7:  MOVWF  77
03E8:  SWAPF  08,W
03E9:  ANDLW  0F
03EA:  MOVWF  78
*
045B:  MOVF   08,W
045C:  MOVWF  77
045D:  SWAPF  08,W
045E:  ANDLW  0F
045F:  MOVWF  78
*
0468:  MOVF   08,W
0469:  MOVWF  77
046A:  SWAPF  08,W
046B:  ANDLW  0F
046C:  MOVWF  78
*
04DE:  MOVF   08,W
04DF:  MOVWF  77
04E0:  SWAPF  08,W
04E1:  ANDLW  0F
04E2:  MOVWF  78
*
04EB:  MOVF   08,W
04EC:  MOVWF  77
04ED:  SWAPF  08,W
04EE:  ANDLW  0F
04EF:  MOVWF  78
*
0561:  MOVF   08,W
0562:  MOVWF  77
0563:  SWAPF  08,W
0564:  ANDLW  0F
0565:  MOVWF  78
*
056E:  MOVF   08,W
056F:  MOVWF  77
0570:  SWAPF  08,W
0571:  ANDLW  0F
0572:  MOVWF  78
*
05E5:  MOVF   08,W
05E6:  MOVWF  77
05E7:  SWAPF  08,W
05E8:  ANDLW  0F
05E9:  MOVWF  78
*
05F2:  MOVF   08,W
05F3:  MOVWF  77
05F4:  SWAPF  08,W
05F5:  ANDLW  0F
05F6:  MOVWF  78
*
0667:  MOVF   08,W
0668:  MOVWF  77
0669:  SWAPF  08,W
066A:  ANDLW  0F
066B:  MOVWF  78
*
0674:  MOVF   08,W
0675:  MOVWF  77
0676:  SWAPF  08,W
0677:  ANDLW  0F
0678:  MOVWF  78
*
06EA:  MOVF   08,W
06EB:  MOVWF  77
06EC:  SWAPF  08,W
06ED:  ANDLW  0F
06EE:  MOVWF  78
*
06F7:  MOVF   08,W
06F8:  MOVWF  77
06F9:  SWAPF  08,W
06FA:  ANDLW  0F
06FB:  MOVWF  78
*
076D:  MOVF   08,W
076E:  MOVWF  77
076F:  SWAPF  08,W
0770:  ANDLW  0F
0771:  MOVWF  78
*
077A:  MOVF   08,W
077B:  MOVWF  77
077C:  SWAPF  08,W
077D:  ANDLW  0F
077E:  MOVWF  78
*
0ACB:  MOVF   08,W
0ACC:  MOVWF  77
0ACD:  SWAPF  08,W
0ACE:  ANDLW  0F
0ACF:  MOVWF  78
*
0AD8:  MOVF   08,W
0AD9:  MOVWF  77
0ADA:  SWAPF  08,W
0ADB:  ANDLW  0F
0ADC:  MOVWF  78
*
0B4C:  MOVF   08,W
0B4D:  MOVWF  77
0B4E:  SWAPF  08,W
0B4F:  ANDLW  0F
0B50:  MOVWF  78
*
0B59:  MOVF   08,W
0B5A:  MOVWF  77
0B5B:  SWAPF  08,W
0B5C:  ANDLW  0F
0B5D:  MOVWF  78
*
0BE2:  MOVF   08,W
0BE3:  MOVWF  77
0BE4:  SWAPF  08,W
0BE5:  ANDLW  0F
0BE6:  MOVWF  78
*
0BEF:  MOVF   08,W
0BF0:  MOVWF  77
0BF1:  SWAPF  08,W
0BF2:  ANDLW  0F
0BF3:  MOVWF  78
*
0C78:  MOVF   08,W
0C79:  MOVWF  77
0C7A:  SWAPF  08,W
0C7B:  ANDLW  0F
0C7C:  MOVWF  78
*
0C85:  MOVF   08,W
0C86:  MOVWF  77
0C87:  SWAPF  08,W
0C88:  ANDLW  0F
0C89:  MOVWF  78
*
0D0E:  MOVF   08,W
0D0F:  MOVWF  77
0D10:  SWAPF  08,W
0D11:  ANDLW  0F
0D12:  MOVWF  78
*
0D1B:  MOVF   08,W
0D1C:  MOVWF  77
0D1D:  SWAPF  08,W
0D1E:  ANDLW  0F
0D1F:  MOVWF  78
*
0DA3:  MOVF   08,W
0DA4:  MOVWF  77
0DA5:  SWAPF  08,W
0DA6:  ANDLW  0F
0DA7:  MOVWF  78
*
0DB0:  MOVF   08,W
0DB1:  MOVWF  77
0DB2:  SWAPF  08,W
0DB3:  ANDLW  0F
0DB4:  MOVWF  78
*
1023:  MOVF   08,W
1024:  MOVWF  77
1025:  SWAPF  08,W
1026:  ANDLW  0F
1027:  MOVWF  78
*
1030:  MOVF   08,W
1031:  MOVWF  77
1032:  SWAPF  08,W
1033:  ANDLW  0F
1034:  MOVWF  78
*
11E5:  MOVF   08,W
11E6:  MOVWF  77
11E7:  SWAPF  08,W
11E8:  ANDLW  0F
11E9:  MOVWF  78
*
11F2:  MOVF   08,W
11F3:  MOVWF  77
11F4:  SWAPF  08,W
11F5:  ANDLW  0F
11F6:  MOVWF  78
*
1345:  MOVF   08,W
1346:  MOVWF  77
1347:  SWAPF  08,W
1348:  ANDLW  0F
1349:  MOVWF  78
*
1352:  MOVF   08,W
1353:  MOVWF  77
1354:  SWAPF  08,W
1355:  ANDLW  0F
1356:  MOVWF  78
*
14F4:  MOVF   08,W
14F5:  MOVWF  77
14F6:  SWAPF  08,W
14F7:  ANDLW  0F
14F8:  MOVWF  78
*
1501:  MOVF   08,W
1502:  MOVWF  77
1503:  SWAPF  08,W
1504:  ANDLW  0F
1505:  MOVWF  78
....................   #endif 
.................... } 
....................  
.................... void lcd_send_nibble(unsigned int8 n) 
.................... { 
....................   #if (defined(LCD_DATA4) && defined(LCD_DATA5) && defined(LCD_DATA6) && defined(LCD_DATA7)) 
....................    /* Write to the data port */ 
....................    output_bit(LCD_DATA4, bit_test(n, 0)); 
....................    output_bit(LCD_DATA5, bit_test(n, 1)); 
....................    output_bit(LCD_DATA6, bit_test(n, 2)); 
....................    output_bit(LCD_DATA7, bit_test(n, 3)); 
....................   #else       
....................    lcdlat.data = n; 
*
0166:  SWAPF  6F,W
0167:  ANDLW  F0
0168:  MOVWF  77
0169:  MOVLW  0F
016A:  ANDWF  08,W
016B:  IORWF  77,W
016C:  MOVWF  08
*
017B:  SWAPF  6F,W
017C:  ANDLW  F0
017D:  MOVWF  77
017E:  MOVLW  0F
017F:  ANDWF  08,W
0180:  IORWF  77,W
0181:  MOVWF  08
*
01D2:  SWAPF  6F,W
01D3:  ANDLW  F0
01D4:  MOVWF  77
01D5:  MOVLW  0F
01D6:  ANDWF  08,W
01D7:  IORWF  77,W
01D8:  MOVWF  08
*
01E7:  SWAPF  6F,W
01E8:  ANDLW  F0
01E9:  MOVWF  77
01EA:  MOVLW  0F
01EB:  ANDWF  08,W
01EC:  IORWF  77,W
01ED:  MOVWF  08
*
0252:  SWAPF  6F,W
0253:  ANDLW  F0
0254:  MOVWF  77
0255:  MOVLW  0F
0256:  ANDWF  08,W
0257:  IORWF  77,W
0258:  MOVWF  08
*
0267:  SWAPF  6F,W
0268:  ANDLW  F0
0269:  MOVWF  77
026A:  MOVLW  0F
026B:  ANDWF  08,W
026C:  IORWF  77,W
026D:  MOVWF  08
*
02BE:  SWAPF  6F,W
02BF:  ANDLW  F0
02C0:  MOVWF  77
02C1:  MOVLW  0F
02C2:  ANDWF  08,W
02C3:  IORWF  77,W
02C4:  MOVWF  08
*
02D3:  SWAPF  6F,W
02D4:  ANDLW  F0
02D5:  MOVWF  77
02D6:  MOVLW  0F
02D7:  ANDWF  08,W
02D8:  IORWF  77,W
02D9:  MOVWF  08
*
032B:  SWAPF  6F,W
032C:  ANDLW  F0
032D:  MOVWF  77
032E:  MOVLW  0F
032F:  ANDWF  08,W
0330:  IORWF  77,W
0331:  MOVWF  08
*
0340:  SWAPF  6F,W
0341:  ANDLW  F0
0342:  MOVWF  77
0343:  MOVLW  0F
0344:  ANDWF  08,W
0345:  IORWF  77,W
0346:  MOVWF  08
*
040C:  SWAPF  6F,W
040D:  ANDLW  F0
040E:  MOVWF  77
040F:  MOVLW  0F
0410:  ANDWF  08,W
0411:  IORWF  77,W
0412:  MOVWF  08
*
0421:  SWAPF  6F,W
0422:  ANDLW  F0
0423:  MOVWF  77
0424:  MOVLW  0F
0425:  ANDWF  08,W
0426:  IORWF  77,W
0427:  MOVWF  08
*
048E:  SWAPF  6F,W
048F:  ANDLW  F0
0490:  MOVWF  77
0491:  MOVLW  0F
0492:  ANDWF  08,W
0493:  IORWF  77,W
0494:  MOVWF  08
*
04A3:  SWAPF  6F,W
04A4:  ANDLW  F0
04A5:  MOVWF  77
04A6:  MOVLW  0F
04A7:  ANDWF  08,W
04A8:  IORWF  77,W
04A9:  MOVWF  08
*
0511:  SWAPF  6F,W
0512:  ANDLW  F0
0513:  MOVWF  77
0514:  MOVLW  0F
0515:  ANDWF  08,W
0516:  IORWF  77,W
0517:  MOVWF  08
*
0526:  SWAPF  6F,W
0527:  ANDLW  F0
0528:  MOVWF  77
0529:  MOVLW  0F
052A:  ANDWF  08,W
052B:  IORWF  77,W
052C:  MOVWF  08
*
0594:  SWAPF  6F,W
0595:  ANDLW  F0
0596:  MOVWF  77
0597:  MOVLW  0F
0598:  ANDWF  08,W
0599:  IORWF  77,W
059A:  MOVWF  08
*
05A9:  SWAPF  6F,W
05AA:  ANDLW  F0
05AB:  MOVWF  77
05AC:  MOVLW  0F
05AD:  ANDWF  08,W
05AE:  IORWF  77,W
05AF:  MOVWF  08
*
0618:  SWAPF  6F,W
0619:  ANDLW  F0
061A:  MOVWF  77
061B:  MOVLW  0F
061C:  ANDWF  08,W
061D:  IORWF  77,W
061E:  MOVWF  08
*
062D:  SWAPF  6F,W
062E:  ANDLW  F0
062F:  MOVWF  77
0630:  MOVLW  0F
0631:  ANDWF  08,W
0632:  IORWF  77,W
0633:  MOVWF  08
*
069A:  SWAPF  6F,W
069B:  ANDLW  F0
069C:  MOVWF  77
069D:  MOVLW  0F
069E:  ANDWF  08,W
069F:  IORWF  77,W
06A0:  MOVWF  08
*
06AF:  SWAPF  6F,W
06B0:  ANDLW  F0
06B1:  MOVWF  77
06B2:  MOVLW  0F
06B3:  ANDWF  08,W
06B4:  IORWF  77,W
06B5:  MOVWF  08
*
071D:  SWAPF  6F,W
071E:  ANDLW  F0
071F:  MOVWF  77
0720:  MOVLW  0F
0721:  ANDWF  08,W
0722:  IORWF  77,W
0723:  MOVWF  08
*
0732:  SWAPF  6F,W
0733:  ANDLW  F0
0734:  MOVWF  77
0735:  MOVLW  0F
0736:  ANDWF  08,W
0737:  IORWF  77,W
0738:  MOVWF  08
*
07A0:  SWAPF  6F,W
07A1:  ANDLW  F0
07A2:  MOVWF  77
07A3:  MOVLW  0F
07A4:  ANDWF  08,W
07A5:  IORWF  77,W
07A6:  MOVWF  08
*
07B5:  SWAPF  6F,W
07B6:  ANDLW  F0
07B7:  MOVWF  77
07B8:  MOVLW  0F
07B9:  ANDWF  08,W
07BA:  IORWF  77,W
07BB:  MOVWF  08
*
0A73:  SWAPF  6F,W
0A74:  ANDLW  F0
0A75:  MOVWF  77
0A76:  MOVLW  0F
0A77:  ANDWF  08,W
0A78:  IORWF  77,W
0A79:  MOVWF  08
*
0A92:  SWAPF  6F,W
0A93:  ANDLW  F0
0A94:  MOVWF  77
0A95:  MOVLW  0F
0A96:  ANDWF  08,W
0A97:  IORWF  77,W
0A98:  MOVWF  08
*
0AFE:  SWAPF  6F,W
0AFF:  ANDLW  F0
0B00:  MOVWF  77
0B01:  MOVLW  0F
0B02:  ANDWF  08,W
0B03:  IORWF  77,W
0B04:  MOVWF  08
*
0B13:  SWAPF  6F,W
0B14:  ANDLW  F0
0B15:  MOVWF  77
0B16:  MOVLW  0F
0B17:  ANDWF  08,W
0B18:  IORWF  77,W
0B19:  MOVWF  08
*
0B7F:  SWAPF  6F,W
0B80:  ANDLW  F0
0B81:  MOVWF  77
0B82:  MOVLW  0F
0B83:  ANDWF  08,W
0B84:  IORWF  77,W
0B85:  MOVWF  08
*
0B94:  SWAPF  6F,W
0B95:  ANDLW  F0
0B96:  MOVWF  77
0B97:  MOVLW  0F
0B98:  ANDWF  08,W
0B99:  IORWF  77,W
0B9A:  MOVWF  08
*
0C15:  SWAPF  6F,W
0C16:  ANDLW  F0
0C17:  MOVWF  77
0C18:  MOVLW  0F
0C19:  ANDWF  08,W
0C1A:  IORWF  77,W
0C1B:  MOVWF  08
*
0C2A:  SWAPF  6F,W
0C2B:  ANDLW  F0
0C2C:  MOVWF  77
0C2D:  MOVLW  0F
0C2E:  ANDWF  08,W
0C2F:  IORWF  77,W
0C30:  MOVWF  08
*
0CAB:  SWAPF  6F,W
0CAC:  ANDLW  F0
0CAD:  MOVWF  77
0CAE:  MOVLW  0F
0CAF:  ANDWF  08,W
0CB0:  IORWF  77,W
0CB1:  MOVWF  08
*
0CC0:  SWAPF  6F,W
0CC1:  ANDLW  F0
0CC2:  MOVWF  77
0CC3:  MOVLW  0F
0CC4:  ANDWF  08,W
0CC5:  IORWF  77,W
0CC6:  MOVWF  08
*
0D41:  SWAPF  6F,W
0D42:  ANDLW  F0
0D43:  MOVWF  77
0D44:  MOVLW  0F
0D45:  ANDWF  08,W
0D46:  IORWF  77,W
0D47:  MOVWF  08
*
0D56:  SWAPF  6F,W
0D57:  ANDLW  F0
0D58:  MOVWF  77
0D59:  MOVLW  0F
0D5A:  ANDWF  08,W
0D5B:  IORWF  77,W
0D5C:  MOVWF  08
*
0DD6:  SWAPF  6F,W
0DD7:  ANDLW  F0
0DD8:  MOVWF  77
0DD9:  MOVLW  0F
0DDA:  ANDWF  08,W
0DDB:  IORWF  77,W
0DDC:  MOVWF  08
*
0DEB:  SWAPF  6F,W
0DEC:  ANDLW  F0
0DED:  MOVWF  77
0DEE:  MOVLW  0F
0DEF:  ANDWF  08,W
0DF0:  IORWF  77,W
0DF1:  MOVWF  08
*
1056:  SWAPF  6F,W
1057:  ANDLW  F0
1058:  MOVWF  77
1059:  MOVLW  0F
105A:  ANDWF  08,W
105B:  IORWF  77,W
105C:  MOVWF  08
*
106B:  SWAPF  6F,W
106C:  ANDLW  F0
106D:  MOVWF  77
106E:  MOVLW  0F
106F:  ANDWF  08,W
1070:  IORWF  77,W
1071:  MOVWF  08
*
1218:  SWAPF  6F,W
1219:  ANDLW  F0
121A:  MOVWF  77
121B:  MOVLW  0F
121C:  ANDWF  08,W
121D:  IORWF  77,W
121E:  MOVWF  08
*
122D:  SWAPF  6F,W
122E:  ANDLW  F0
122F:  MOVWF  77
1230:  MOVLW  0F
1231:  ANDWF  08,W
1232:  IORWF  77,W
1233:  MOVWF  08
*
1378:  SWAPF  6F,W
1379:  ANDLW  F0
137A:  MOVWF  77
137B:  MOVLW  0F
137C:  ANDWF  08,W
137D:  IORWF  77,W
137E:  MOVWF  08
*
138D:  SWAPF  6F,W
138E:  ANDLW  F0
138F:  MOVWF  77
1390:  MOVLW  0F
1391:  ANDWF  08,W
1392:  IORWF  77,W
1393:  MOVWF  08
*
1527:  SWAPF  6F,W
1528:  ANDLW  F0
1529:  MOVWF  77
152A:  MOVLW  0F
152B:  ANDWF  08,W
152C:  IORWF  77,W
152D:  MOVWF  08
*
153C:  SWAPF  6F,W
153D:  ANDLW  F0
153E:  MOVWF  77
153F:  MOVLW  0F
1540:  ANDWF  08,W
1541:  IORWF  77,W
1542:  MOVWF  08
....................   #endif 
....................        
....................    delay_cycles(1); 
*
016D:  NOP
*
0182:  NOP
*
01D9:  NOP
*
01EE:  NOP
*
0259:  NOP
*
026E:  NOP
*
02C5:  NOP
*
02DA:  NOP
*
0332:  NOP
*
0347:  NOP
*
0413:  NOP
*
0428:  NOP
*
0495:  NOP
*
04AA:  NOP
*
0518:  NOP
*
052D:  NOP
*
059B:  NOP
*
05B0:  NOP
*
061F:  NOP
*
0634:  NOP
*
06A1:  NOP
*
06B6:  NOP
*
0724:  NOP
*
0739:  NOP
*
07A7:  NOP
*
07BC:  NOP
*
0A7A:  NOP
*
0A99:  NOP
*
0B05:  NOP
*
0B1A:  NOP
*
0B86:  NOP
*
0B9B:  NOP
*
0C1C:  NOP
*
0C31:  NOP
*
0CB2:  NOP
*
0CC7:  NOP
*
0D48:  NOP
*
0D5D:  NOP
*
0DDD:  NOP
*
0DF2:  NOP
*
105D:  NOP
*
1072:  NOP
*
121F:  NOP
*
1234:  NOP
*
137F:  NOP
*
1394:  NOP
*
152E:  NOP
*
1543:  NOP
....................    lcd_output_enable(1); 
*
016E:  BSF    08.0
*
0183:  BSF    08.0
*
01DA:  BSF    08.0
*
01EF:  BSF    08.0
*
025A:  BSF    08.0
*
026F:  BSF    08.0
*
02C6:  BSF    08.0
*
02DB:  BSF    08.0
*
0333:  BSF    08.0
*
0348:  BSF    08.0
*
0414:  BSF    08.0
*
0429:  BSF    08.0
*
0496:  BSF    08.0
*
04AB:  BSF    08.0
*
0519:  BSF    08.0
*
052E:  BSF    08.0
*
059C:  BSF    08.0
*
05B1:  BSF    08.0
*
0620:  BSF    08.0
*
0635:  BSF    08.0
*
06A2:  BSF    08.0
*
06B7:  BSF    08.0
*
0725:  BSF    08.0
*
073A:  BSF    08.0
*
07A8:  BSF    08.0
*
07BD:  BSF    08.0
*
0A7B:  BSF    08.0
*
0A9A:  BSF    08.0
*
0B06:  BSF    08.0
*
0B1B:  BSF    08.0
*
0B87:  BSF    08.0
*
0B9C:  BSF    08.0
*
0C1D:  BSF    08.0
*
0C32:  BSF    08.0
*
0CB3:  BSF    08.0
*
0CC8:  BSF    08.0
*
0D49:  BSF    08.0
*
0D5E:  BSF    08.0
*
0DDE:  BSF    08.0
*
0DF3:  BSF    08.0
*
105E:  BSF    08.0
*
1073:  BSF    08.0
*
1220:  BSF    08.0
*
1235:  BSF    08.0
*
1380:  BSF    08.0
*
1395:  BSF    08.0
*
152F:  BSF    08.0
*
1544:  BSF    08.0
....................    delay_us(2); 
*
016F:  MOVLW  02
0170:  MOVWF  77
0171:  DECFSZ 77,F
0172:  GOTO   171
0173:  GOTO   174
0174:  NOP
*
0184:  MOVLW  02
0185:  MOVWF  77
0186:  DECFSZ 77,F
0187:  GOTO   186
0188:  GOTO   189
0189:  NOP
*
01DB:  MOVLW  02
01DC:  MOVWF  77
01DD:  DECFSZ 77,F
01DE:  GOTO   1DD
01DF:  GOTO   1E0
01E0:  NOP
*
01F0:  MOVLW  02
01F1:  MOVWF  77
01F2:  DECFSZ 77,F
01F3:  GOTO   1F2
01F4:  GOTO   1F5
01F5:  NOP
*
025B:  MOVLW  02
025C:  MOVWF  77
025D:  DECFSZ 77,F
025E:  GOTO   25D
025F:  GOTO   260
0260:  NOP
*
0270:  MOVLW  02
0271:  MOVWF  77
0272:  DECFSZ 77,F
0273:  GOTO   272
0274:  GOTO   275
0275:  NOP
*
02C7:  MOVLW  02
02C8:  MOVWF  77
02C9:  DECFSZ 77,F
02CA:  GOTO   2C9
02CB:  GOTO   2CC
02CC:  NOP
*
02DC:  MOVLW  02
02DD:  MOVWF  77
02DE:  DECFSZ 77,F
02DF:  GOTO   2DE
02E0:  GOTO   2E1
02E1:  NOP
*
0334:  MOVLW  02
0335:  MOVWF  77
0336:  DECFSZ 77,F
0337:  GOTO   336
0338:  GOTO   339
0339:  NOP
*
0349:  MOVLW  02
034A:  MOVWF  77
034B:  DECFSZ 77,F
034C:  GOTO   34B
034D:  GOTO   34E
034E:  NOP
*
0415:  MOVLW  02
0416:  MOVWF  77
0417:  DECFSZ 77,F
0418:  GOTO   417
0419:  GOTO   41A
041A:  NOP
*
042A:  MOVLW  02
042B:  MOVWF  77
042C:  DECFSZ 77,F
042D:  GOTO   42C
042E:  GOTO   42F
042F:  NOP
*
0497:  MOVLW  02
0498:  MOVWF  77
0499:  DECFSZ 77,F
049A:  GOTO   499
049B:  GOTO   49C
049C:  NOP
*
04AC:  MOVLW  02
04AD:  MOVWF  77
04AE:  DECFSZ 77,F
04AF:  GOTO   4AE
04B0:  GOTO   4B1
04B1:  NOP
*
051A:  MOVLW  02
051B:  MOVWF  77
051C:  DECFSZ 77,F
051D:  GOTO   51C
051E:  GOTO   51F
051F:  NOP
*
052F:  MOVLW  02
0530:  MOVWF  77
0531:  DECFSZ 77,F
0532:  GOTO   531
0533:  GOTO   534
0534:  NOP
*
059D:  MOVLW  02
059E:  MOVWF  77
059F:  DECFSZ 77,F
05A0:  GOTO   59F
05A1:  GOTO   5A2
05A2:  NOP
*
05B2:  MOVLW  02
05B3:  MOVWF  77
05B4:  DECFSZ 77,F
05B5:  GOTO   5B4
05B6:  GOTO   5B7
05B7:  NOP
*
0621:  MOVLW  02
0622:  MOVWF  77
0623:  DECFSZ 77,F
0624:  GOTO   623
0625:  GOTO   626
0626:  NOP
*
0636:  MOVLW  02
0637:  MOVWF  77
0638:  DECFSZ 77,F
0639:  GOTO   638
063A:  GOTO   63B
063B:  NOP
*
06A3:  MOVLW  02
06A4:  MOVWF  77
06A5:  DECFSZ 77,F
06A6:  GOTO   6A5
06A7:  GOTO   6A8
06A8:  NOP
*
06B8:  MOVLW  02
06B9:  MOVWF  77
06BA:  DECFSZ 77,F
06BB:  GOTO   6BA
06BC:  GOTO   6BD
06BD:  NOP
*
0726:  MOVLW  02
0727:  MOVWF  77
0728:  DECFSZ 77,F
0729:  GOTO   728
072A:  GOTO   72B
072B:  NOP
*
073B:  MOVLW  02
073C:  MOVWF  77
073D:  DECFSZ 77,F
073E:  GOTO   73D
073F:  GOTO   740
0740:  NOP
*
07A9:  MOVLW  02
07AA:  MOVWF  77
07AB:  DECFSZ 77,F
07AC:  GOTO   7AB
07AD:  GOTO   7AE
07AE:  NOP
*
07BE:  MOVLW  02
07BF:  MOVWF  77
07C0:  DECFSZ 77,F
07C1:  GOTO   7C0
07C2:  GOTO   7C3
07C3:  NOP
*
0A7C:  MOVLW  02
0A7D:  MOVWF  77
0A7E:  DECFSZ 77,F
0A7F:  GOTO   27E
0A80:  GOTO   281
0A81:  NOP
*
0A9B:  MOVLW  02
0A9C:  MOVWF  77
0A9D:  DECFSZ 77,F
0A9E:  GOTO   29D
0A9F:  GOTO   2A0
0AA0:  NOP
*
0B07:  MOVLW  02
0B08:  MOVWF  77
0B09:  DECFSZ 77,F
0B0A:  GOTO   309
0B0B:  GOTO   30C
0B0C:  NOP
*
0B1C:  MOVLW  02
0B1D:  MOVWF  77
0B1E:  DECFSZ 77,F
0B1F:  GOTO   31E
0B20:  GOTO   321
0B21:  NOP
*
0B88:  MOVLW  02
0B89:  MOVWF  77
0B8A:  DECFSZ 77,F
0B8B:  GOTO   38A
0B8C:  GOTO   38D
0B8D:  NOP
*
0B9D:  MOVLW  02
0B9E:  MOVWF  77
0B9F:  DECFSZ 77,F
0BA0:  GOTO   39F
0BA1:  GOTO   3A2
0BA2:  NOP
*
0C1E:  MOVLW  02
0C1F:  MOVWF  77
0C20:  DECFSZ 77,F
0C21:  GOTO   420
0C22:  GOTO   423
0C23:  NOP
*
0C33:  MOVLW  02
0C34:  MOVWF  77
0C35:  DECFSZ 77,F
0C36:  GOTO   435
0C37:  GOTO   438
0C38:  NOP
*
0CB4:  MOVLW  02
0CB5:  MOVWF  77
0CB6:  DECFSZ 77,F
0CB7:  GOTO   4B6
0CB8:  GOTO   4B9
0CB9:  NOP
*
0CC9:  MOVLW  02
0CCA:  MOVWF  77
0CCB:  DECFSZ 77,F
0CCC:  GOTO   4CB
0CCD:  GOTO   4CE
0CCE:  NOP
*
0D4A:  MOVLW  02
0D4B:  MOVWF  77
0D4C:  DECFSZ 77,F
0D4D:  GOTO   54C
0D4E:  GOTO   54F
0D4F:  NOP
*
0D5F:  MOVLW  02
0D60:  MOVWF  77
0D61:  DECFSZ 77,F
0D62:  GOTO   561
0D63:  GOTO   564
0D64:  NOP
*
0DDF:  MOVLW  02
0DE0:  MOVWF  77
0DE1:  DECFSZ 77,F
0DE2:  GOTO   5E1
0DE3:  GOTO   5E4
0DE4:  NOP
*
0DF4:  MOVLW  02
0DF5:  MOVWF  77
0DF6:  DECFSZ 77,F
0DF7:  GOTO   5F6
0DF8:  GOTO   5F9
0DF9:  NOP
*
105F:  MOVLW  02
1060:  MOVWF  77
1061:  DECFSZ 77,F
1062:  GOTO   061
1063:  GOTO   064
1064:  NOP
*
1074:  MOVLW  02
1075:  MOVWF  77
1076:  DECFSZ 77,F
1077:  GOTO   076
1078:  GOTO   079
1079:  NOP
*
1221:  MOVLW  02
1222:  MOVWF  77
1223:  DECFSZ 77,F
1224:  GOTO   223
1225:  GOTO   226
1226:  NOP
*
1236:  MOVLW  02
1237:  MOVWF  77
1238:  DECFSZ 77,F
1239:  GOTO   238
123A:  GOTO   23B
123B:  NOP
*
1381:  MOVLW  02
1382:  MOVWF  77
1383:  DECFSZ 77,F
1384:  GOTO   383
1385:  GOTO   386
1386:  NOP
*
1396:  MOVLW  02
1397:  MOVWF  77
1398:  DECFSZ 77,F
1399:  GOTO   398
139A:  GOTO   39B
139B:  NOP
*
1530:  MOVLW  02
1531:  MOVWF  77
1532:  DECFSZ 77,F
1533:  GOTO   532
1534:  GOTO   535
1535:  NOP
*
1545:  MOVLW  02
1546:  MOVWF  77
1547:  DECFSZ 77,F
1548:  GOTO   547
1549:  GOTO   54A
154A:  NOP
....................    lcd_output_enable(0); 
*
0175:  BCF    08.0
*
018A:  BCF    08.0
*
01E1:  BCF    08.0
*
01F6:  BCF    08.0
*
0261:  BCF    08.0
*
0276:  BCF    08.0
*
02CD:  BCF    08.0
*
02E2:  BCF    08.0
*
033A:  BCF    08.0
*
034F:  BCF    08.0
*
041B:  BCF    08.0
*
0430:  BCF    08.0
*
049D:  BCF    08.0
*
04B2:  BCF    08.0
*
0520:  BCF    08.0
*
0535:  BCF    08.0
*
05A3:  BCF    08.0
*
05B8:  BCF    08.0
*
0627:  BCF    08.0
*
063C:  BCF    08.0
*
06A9:  BCF    08.0
*
06BE:  BCF    08.0
*
072C:  BCF    08.0
*
0741:  BCF    08.0
*
07AF:  BCF    08.0
*
07C4:  BCF    08.0
*
0A82:  BCF    08.0
0A83:  CLRF   2B
0A84:  BTFSC  0B.7
0A85:  BSF    2B.7
0A86:  BCF    0B.7
*
0AA1:  BCF    08.0
0AA2:  CLRF   2B
0AA3:  BTFSC  0B.7
0AA4:  BSF    2B.7
0AA5:  BCF    0B.7
*
0B0D:  BCF    08.0
*
0B22:  BCF    08.0
*
0B8E:  BCF    08.0
*
0BA3:  BCF    08.0
*
0C24:  BCF    08.0
*
0C39:  BCF    08.0
*
0CBA:  BCF    08.0
*
0CCF:  BCF    08.0
*
0D50:  BCF    08.0
*
0D65:  BCF    08.0
*
0DE5:  BCF    08.0
*
0DFA:  BCF    08.0
0DFB:  CLRF   2B
0DFC:  BTFSC  0B.7
0DFD:  BSF    2B.7
0DFE:  BCF    0B.7
*
1065:  BCF    08.0
*
107A:  BCF    08.0
*
1227:  BCF    08.0
*
123C:  BCF    08.0
*
1387:  BCF    08.0
*
139C:  BCF    08.0
*
1536:  BCF    08.0
*
154B:  BCF    08.0
.................... } 
....................  
.................... void lcd_send_byte(unsigned int8 address, unsigned int8 n) 
.................... { 
....................   #if defined(__PCB__) 
....................    set_tris_lcd(LCD_OUTPUT_MAP); 
....................   #else 
....................    lcd_enable_tris(); 
*
0123:  BSF    03.5
0124:  BCF    08.0
*
018F:  BSF    03.5
0190:  BCF    08.0
*
020F:  BSF    03.5
0210:  BCF    08.0
*
027B:  BSF    03.5
027C:  BCF    08.0
*
02E8:  BSF    03.5
02E9:  BCF    08.0
*
03C9:  BSF    03.5
03CA:  BCF    08.0
*
044B:  BSF    03.5
044C:  BCF    08.0
*
04CE:  BSF    03.5
04CF:  BCF    08.0
*
0551:  BSF    03.5
0552:  BCF    08.0
*
05D5:  BSF    03.5
05D6:  BCF    08.0
*
0657:  BSF    03.5
0658:  BCF    08.0
*
06DA:  BSF    03.5
06DB:  BCF    08.0
*
075D:  BSF    03.5
075E:  BCF    08.0
*
0ABB:  BSF    03.5
0ABC:  BCF    08.0
*
0B3C:  BSF    03.5
0B3D:  BCF    08.0
*
0BD2:  BSF    03.5
0BD3:  BCF    08.0
*
0C68:  BSF    03.5
0C69:  BCF    08.0
*
0CFE:  BSF    03.5
0CFF:  BCF    08.0
*
0D93:  BSF    03.5
0D94:  BCF    08.0
*
1013:  BSF    03.5
1014:  BCF    08.0
*
11D5:  BSF    03.5
11D6:  BCF    08.0
*
1335:  BSF    03.5
1336:  BCF    08.0
*
14E4:  BSF    03.5
14E5:  BCF    08.0
....................    lcd_rs_tris(); 
*
0125:  BCF    08.1
*
0191:  BCF    08.1
*
0211:  BCF    08.1
*
027D:  BCF    08.1
*
02EA:  BCF    08.1
*
03CB:  BCF    08.1
*
044D:  BCF    08.1
*
04D0:  BCF    08.1
*
0553:  BCF    08.1
*
05D7:  BCF    08.1
*
0659:  BCF    08.1
*
06DC:  BCF    08.1
*
075F:  BCF    08.1
*
0ABD:  BCF    08.1
*
0B3E:  BCF    08.1
*
0BD4:  BCF    08.1
*
0C6A:  BCF    08.1
*
0D00:  BCF    08.1
*
0D95:  BCF    08.1
*
1015:  BCF    08.1
*
11D7:  BCF    08.1
*
1337:  BCF    08.1
*
14E6:  BCF    08.1
....................    lcd_rw_tris(); 
*
0126:  BCF    08.2
*
0192:  BCF    08.2
*
0212:  BCF    08.2
*
027E:  BCF    08.2
*
02EB:  BCF    08.2
*
03CC:  BCF    08.2
*
044E:  BCF    08.2
*
04D1:  BCF    08.2
*
0554:  BCF    08.2
*
05D8:  BCF    08.2
*
065A:  BCF    08.2
*
06DD:  BCF    08.2
*
0760:  BCF    08.2
*
0ABE:  BCF    08.2
*
0B3F:  BCF    08.2
*
0BD5:  BCF    08.2
*
0C6B:  BCF    08.2
*
0D01:  BCF    08.2
*
0D96:  BCF    08.2
*
1016:  BCF    08.2
*
11D8:  BCF    08.2
*
1338:  BCF    08.2
*
14E7:  BCF    08.2
....................   #endif 
....................  
....................    lcd_output_rs(0); 
*
0127:  BCF    03.5
0128:  BCF    08.1
*
0193:  BCF    03.5
0194:  BCF    08.1
*
0213:  BCF    03.5
0214:  BCF    08.1
*
027F:  BCF    03.5
0280:  BCF    08.1
*
02EC:  BCF    03.5
02ED:  BCF    08.1
*
03CD:  BCF    03.5
03CE:  BCF    08.1
*
044F:  BCF    03.5
0450:  BCF    08.1
*
04D2:  BCF    03.5
04D3:  BCF    08.1
*
0555:  BCF    03.5
0556:  BCF    08.1
*
05D9:  BCF    03.5
05DA:  BCF    08.1
*
065B:  BCF    03.5
065C:  BCF    08.1
*
06DE:  BCF    03.5
06DF:  BCF    08.1
*
0761:  BCF    03.5
0762:  BCF    08.1
*
0ABF:  BCF    03.5
0AC0:  BCF    08.1
*
0B40:  BCF    03.5
0B41:  BCF    08.1
*
0BD6:  BCF    03.5
0BD7:  BCF    08.1
*
0C6C:  BCF    03.5
0C6D:  BCF    08.1
*
0D02:  BCF    03.5
0D03:  BCF    08.1
*
0D97:  BCF    03.5
0D98:  BCF    08.1
*
1017:  BCF    03.5
1018:  BCF    08.1
*
11D9:  BCF    03.5
11DA:  BCF    08.1
*
1339:  BCF    03.5
133A:  BCF    08.1
*
14E8:  BCF    03.5
14E9:  BCF    08.1
....................    while ( bit_test(lcd_read_byte(),7) ) ; 
*
0154:  MOVF   78,W
0155:  MOVWF  6E
0156:  BTFSC  6E.7
0157:  GOTO   129
*
01C0:  MOVF   78,W
01C1:  MOVWF  6E
01C2:  BTFSC  6E.7
01C3:  GOTO   195
*
0240:  MOVF   78,W
0241:  MOVWF  6E
0242:  BTFSC  6E.7
0243:  GOTO   215
*
02AC:  MOVF   78,W
02AD:  MOVWF  6E
02AE:  BTFSC  6E.7
02AF:  GOTO   281
*
0319:  MOVF   78,W
031A:  MOVWF  6E
031B:  BTFSC  6E.7
031C:  GOTO   2EE
*
03FA:  MOVF   78,W
03FB:  MOVWF  6E
03FC:  BTFSC  6E.7
03FD:  GOTO   3CF
*
047C:  MOVF   78,W
047D:  MOVWF  6E
047E:  BTFSC  6E.7
047F:  GOTO   451
*
04FF:  MOVF   78,W
0500:  MOVWF  6E
0501:  BTFSC  6E.7
0502:  GOTO   4D4
*
0582:  MOVF   78,W
0583:  MOVWF  6E
0584:  BTFSC  6E.7
0585:  GOTO   557
*
0606:  MOVF   78,W
0607:  MOVWF  6E
0608:  BTFSC  6E.7
0609:  GOTO   5DB
*
0688:  MOVF   78,W
0689:  MOVWF  6E
068A:  BTFSC  6E.7
068B:  GOTO   65D
*
070B:  MOVF   78,W
070C:  MOVWF  6E
070D:  BTFSC  6E.7
070E:  GOTO   6E0
*
078E:  MOVF   78,W
078F:  MOVWF  6E
0790:  BTFSC  6E.7
0791:  GOTO   763
*
0AEC:  MOVF   78,W
0AED:  MOVWF  6E
0AEE:  BTFSC  6E.7
0AEF:  GOTO   2C1
*
0B6D:  MOVF   78,W
0B6E:  MOVWF  6E
0B6F:  BTFSC  6E.7
0B70:  GOTO   342
*
0C03:  MOVF   78,W
0C04:  MOVWF  6E
0C05:  BTFSC  6E.7
0C06:  GOTO   3D8
*
0C99:  MOVF   78,W
0C9A:  MOVWF  6E
0C9B:  BTFSC  6E.7
0C9C:  GOTO   46E
*
0D2F:  MOVF   78,W
0D30:  MOVWF  6E
0D31:  BTFSC  6E.7
0D32:  GOTO   504
*
0DC4:  MOVF   78,W
0DC5:  MOVWF  6E
0DC6:  BTFSC  6E.7
0DC7:  GOTO   599
*
1044:  MOVF   78,W
1045:  MOVWF  6E
1046:  BTFSC  6E.7
1047:  GOTO   019
*
1206:  MOVF   78,W
1207:  MOVWF  6E
1208:  BTFSC  6E.7
1209:  GOTO   1DB
*
1366:  MOVF   78,W
1367:  MOVWF  6E
1368:  BTFSC  6E.7
1369:  GOTO   33B
*
1515:  MOVF   78,W
1516:  MOVWF  6E
1517:  BTFSC  6E.7
1518:  GOTO   4EA
....................    lcd_output_rs(address); 
*
0158:  BTFSS  6C.0
0159:  BCF    08.1
015A:  BTFSC  6C.0
015B:  BSF    08.1
*
01C4:  BTFSS  6C.0
01C5:  BCF    08.1
01C6:  BTFSC  6C.0
01C7:  BSF    08.1
*
0244:  BTFSS  6C.0
0245:  BCF    08.1
0246:  BTFSC  6C.0
0247:  BSF    08.1
*
02B0:  BTFSS  6C.0
02B1:  BCF    08.1
02B2:  BTFSC  6C.0
02B3:  BSF    08.1
*
031D:  BTFSS  6C.0
031E:  BCF    08.1
031F:  BTFSC  6C.0
0320:  BSF    08.1
*
03FE:  BTFSS  6C.0
03FF:  BCF    08.1
0400:  BTFSC  6C.0
0401:  BSF    08.1
*
0480:  BTFSS  6C.0
0481:  BCF    08.1
0482:  BTFSC  6C.0
0483:  BSF    08.1
*
0503:  BTFSS  6C.0
0504:  BCF    08.1
0505:  BTFSC  6C.0
0506:  BSF    08.1
*
0586:  BTFSS  6C.0
0587:  BCF    08.1
0588:  BTFSC  6C.0
0589:  BSF    08.1
*
060A:  BTFSS  6C.0
060B:  BCF    08.1
060C:  BTFSC  6C.0
060D:  BSF    08.1
*
068C:  BTFSS  6C.0
068D:  BCF    08.1
068E:  BTFSC  6C.0
068F:  BSF    08.1
*
070F:  BTFSS  6C.0
0710:  BCF    08.1
0711:  BTFSC  6C.0
0712:  BSF    08.1
*
0792:  BTFSS  6C.0
0793:  BCF    08.1
0794:  BTFSC  6C.0
0795:  BSF    08.1
*
0AF0:  BTFSS  6C.0
0AF1:  BCF    08.1
0AF2:  BTFSC  6C.0
0AF3:  BSF    08.1
*
0B71:  BTFSS  6C.0
0B72:  BCF    08.1
0B73:  BTFSC  6C.0
0B74:  BSF    08.1
*
0C07:  BTFSS  6C.0
0C08:  BCF    08.1
0C09:  BTFSC  6C.0
0C0A:  BSF    08.1
*
0C9D:  BTFSS  6C.0
0C9E:  BCF    08.1
0C9F:  BTFSC  6C.0
0CA0:  BSF    08.1
*
0D33:  BTFSS  6C.0
0D34:  BCF    08.1
0D35:  BTFSC  6C.0
0D36:  BSF    08.1
*
0DC8:  BTFSS  6C.0
0DC9:  BCF    08.1
0DCA:  BTFSC  6C.0
0DCB:  BSF    08.1
*
1048:  BTFSS  6C.0
1049:  BCF    08.1
104A:  BTFSC  6C.0
104B:  BSF    08.1
*
120A:  BTFSS  6C.0
120B:  BCF    08.1
120C:  BTFSC  6C.0
120D:  BSF    08.1
*
136A:  BTFSS  6C.0
136B:  BCF    08.1
136C:  BTFSC  6C.0
136D:  BSF    08.1
*
1519:  BTFSS  6C.0
151A:  BCF    08.1
151B:  BTFSC  6C.0
151C:  BSF    08.1
....................    delay_cycles(1); 
*
015C:  NOP
*
01C8:  NOP
*
0248:  NOP
*
02B4:  NOP
*
0321:  NOP
*
0402:  NOP
*
0484:  NOP
*
0507:  NOP
*
058A:  NOP
*
060E:  NOP
*
0690:  NOP
*
0713:  NOP
*
0796:  NOP
*
0AF4:  NOP
*
0B75:  NOP
*
0C0B:  NOP
*
0CA1:  NOP
*
0D37:  NOP
*
0DCC:  NOP
*
104C:  NOP
*
120E:  NOP
*
136E:  NOP
*
151D:  NOP
....................    lcd_output_rw(0); 
*
015D:  BCF    08.2
*
01C9:  BCF    08.2
*
0249:  BCF    08.2
*
02B5:  BCF    08.2
*
0322:  BCF    08.2
*
0403:  BCF    08.2
*
0485:  BCF    08.2
*
0508:  BCF    08.2
*
058B:  BCF    08.2
*
060F:  BCF    08.2
*
0691:  BCF    08.2
*
0714:  BCF    08.2
*
0797:  BCF    08.2
*
0AF5:  BCF    08.2
*
0B76:  BCF    08.2
*
0C0C:  BCF    08.2
*
0CA2:  BCF    08.2
*
0D38:  BCF    08.2
*
0DCD:  BCF    08.2
*
104D:  BCF    08.2
*
120F:  BCF    08.2
*
136F:  BCF    08.2
*
151E:  BCF    08.2
....................    delay_cycles(1); 
*
015E:  NOP
*
01CA:  NOP
*
024A:  NOP
*
02B6:  NOP
*
0323:  NOP
*
0404:  NOP
*
0486:  NOP
*
0509:  NOP
*
058C:  NOP
*
0610:  NOP
*
0692:  NOP
*
0715:  NOP
*
0798:  NOP
*
0AF6:  NOP
*
0B77:  NOP
*
0C0D:  NOP
*
0CA3:  NOP
*
0D39:  NOP
*
0DCE:  NOP
*
104E:  NOP
*
1210:  NOP
*
1370:  NOP
*
151F:  NOP
....................    lcd_output_enable(0); 
*
015F:  BCF    08.0
*
01CB:  BCF    08.0
*
024B:  BCF    08.0
*
02B7:  BCF    08.0
*
0324:  BCF    08.0
*
0405:  BCF    08.0
*
0487:  BCF    08.0
*
050A:  BCF    08.0
*
058D:  BCF    08.0
*
0611:  BCF    08.0
*
0693:  BCF    08.0
*
0716:  BCF    08.0
*
0799:  BCF    08.0
*
0AF7:  BCF    08.0
*
0B78:  BCF    08.0
*
0C0E:  BCF    08.0
*
0CA4:  BCF    08.0
*
0D3A:  BCF    08.0
*
0DCF:  BCF    08.0
*
104F:  BCF    08.0
*
1211:  BCF    08.0
*
1371:  BCF    08.0
*
1520:  BCF    08.0
....................    lcd_send_nibble(n >> 4); 
*
0160:  SWAPF  6D,W
0161:  MOVWF  6E
0162:  MOVLW  0F
0163:  ANDWF  6E,F
0164:  MOVF   6E,W
0165:  MOVWF  6F
*
01CC:  SWAPF  6D,W
01CD:  MOVWF  6E
01CE:  MOVLW  0F
01CF:  ANDWF  6E,F
01D0:  MOVF   6E,W
01D1:  MOVWF  6F
*
024C:  SWAPF  6D,W
024D:  MOVWF  6E
024E:  MOVLW  0F
024F:  ANDWF  6E,F
0250:  MOVF   6E,W
0251:  MOVWF  6F
*
02B8:  SWAPF  6D,W
02B9:  MOVWF  6E
02BA:  MOVLW  0F
02BB:  ANDWF  6E,F
02BC:  MOVF   6E,W
02BD:  MOVWF  6F
*
0325:  SWAPF  6D,W
0326:  MOVWF  6E
0327:  MOVLW  0F
0328:  ANDWF  6E,F
0329:  MOVF   6E,W
032A:  MOVWF  6F
*
0406:  SWAPF  6D,W
0407:  MOVWF  6E
0408:  MOVLW  0F
0409:  ANDWF  6E,F
040A:  MOVF   6E,W
040B:  MOVWF  6F
*
0488:  SWAPF  6D,W
0489:  MOVWF  6E
048A:  MOVLW  0F
048B:  ANDWF  6E,F
048C:  MOVF   6E,W
048D:  MOVWF  6F
*
050B:  SWAPF  6D,W
050C:  MOVWF  6E
050D:  MOVLW  0F
050E:  ANDWF  6E,F
050F:  MOVF   6E,W
0510:  MOVWF  6F
*
058E:  SWAPF  6D,W
058F:  MOVWF  6E
0590:  MOVLW  0F
0591:  ANDWF  6E,F
0592:  MOVF   6E,W
0593:  MOVWF  6F
*
0612:  SWAPF  6D,W
0613:  MOVWF  6E
0614:  MOVLW  0F
0615:  ANDWF  6E,F
0616:  MOVF   6E,W
0617:  MOVWF  6F
*
0694:  SWAPF  6D,W
0695:  MOVWF  6E
0696:  MOVLW  0F
0697:  ANDWF  6E,F
0698:  MOVF   6E,W
0699:  MOVWF  6F
*
0717:  SWAPF  6D,W
0718:  MOVWF  6E
0719:  MOVLW  0F
071A:  ANDWF  6E,F
071B:  MOVF   6E,W
071C:  MOVWF  6F
*
079A:  SWAPF  6D,W
079B:  MOVWF  6E
079C:  MOVLW  0F
079D:  ANDWF  6E,F
079E:  MOVF   6E,W
079F:  MOVWF  6F
*
0AF8:  SWAPF  6D,W
0AF9:  MOVWF  6E
0AFA:  MOVLW  0F
0AFB:  ANDWF  6E,F
0AFC:  MOVF   6E,W
0AFD:  MOVWF  6F
*
0B79:  SWAPF  6D,W
0B7A:  MOVWF  6E
0B7B:  MOVLW  0F
0B7C:  ANDWF  6E,F
0B7D:  MOVF   6E,W
0B7E:  MOVWF  6F
*
0C0F:  SWAPF  6D,W
0C10:  MOVWF  6E
0C11:  MOVLW  0F
0C12:  ANDWF  6E,F
0C13:  MOVF   6E,W
0C14:  MOVWF  6F
*
0CA5:  SWAPF  6D,W
0CA6:  MOVWF  6E
0CA7:  MOVLW  0F
0CA8:  ANDWF  6E,F
0CA9:  MOVF   6E,W
0CAA:  MOVWF  6F
*
0D3B:  SWAPF  6D,W
0D3C:  MOVWF  6E
0D3D:  MOVLW  0F
0D3E:  ANDWF  6E,F
0D3F:  MOVF   6E,W
0D40:  MOVWF  6F
*
0DD0:  SWAPF  6D,W
0DD1:  MOVWF  6E
0DD2:  MOVLW  0F
0DD3:  ANDWF  6E,F
0DD4:  MOVF   6E,W
0DD5:  MOVWF  6F
*
1050:  SWAPF  6D,W
1051:  MOVWF  6E
1052:  MOVLW  0F
1053:  ANDWF  6E,F
1054:  MOVF   6E,W
1055:  MOVWF  6F
*
1212:  SWAPF  6D,W
1213:  MOVWF  6E
1214:  MOVLW  0F
1215:  ANDWF  6E,F
1216:  MOVF   6E,W
1217:  MOVWF  6F
*
1372:  SWAPF  6D,W
1373:  MOVWF  6E
1374:  MOVLW  0F
1375:  ANDWF  6E,F
1376:  MOVF   6E,W
1377:  MOVWF  6F
*
1521:  SWAPF  6D,W
1522:  MOVWF  6E
1523:  MOVLW  0F
1524:  ANDWF  6E,F
1525:  MOVF   6E,W
1526:  MOVWF  6F
....................    lcd_send_nibble(n & 0xf); 
*
0176:  MOVF   6D,W
0177:  ANDLW  0F
0178:  MOVWF  6E
0179:  MOVF   6E,W
017A:  MOVWF  6F
*
01E2:  MOVF   6D,W
01E3:  ANDLW  0F
01E4:  MOVWF  6E
01E5:  MOVF   6E,W
01E6:  MOVWF  6F
*
0262:  MOVF   6D,W
0263:  ANDLW  0F
0264:  MOVWF  6E
0265:  MOVF   6E,W
0266:  MOVWF  6F
*
02CE:  MOVF   6D,W
02CF:  ANDLW  0F
02D0:  MOVWF  6E
02D1:  MOVF   6E,W
02D2:  MOVWF  6F
*
033B:  MOVF   6D,W
033C:  ANDLW  0F
033D:  MOVWF  6E
033E:  MOVF   6E,W
033F:  MOVWF  6F
*
041C:  MOVF   6D,W
041D:  ANDLW  0F
041E:  MOVWF  6E
041F:  MOVF   6E,W
0420:  MOVWF  6F
*
049E:  MOVF   6D,W
049F:  ANDLW  0F
04A0:  MOVWF  6E
04A1:  MOVF   6E,W
04A2:  MOVWF  6F
*
0521:  MOVF   6D,W
0522:  ANDLW  0F
0523:  MOVWF  6E
0524:  MOVF   6E,W
0525:  MOVWF  6F
*
05A4:  MOVF   6D,W
05A5:  ANDLW  0F
05A6:  MOVWF  6E
05A7:  MOVF   6E,W
05A8:  MOVWF  6F
*
0628:  MOVF   6D,W
0629:  ANDLW  0F
062A:  MOVWF  6E
062B:  MOVF   6E,W
062C:  MOVWF  6F
*
06AA:  MOVF   6D,W
06AB:  ANDLW  0F
06AC:  MOVWF  6E
06AD:  MOVF   6E,W
06AE:  MOVWF  6F
*
072D:  MOVF   6D,W
072E:  ANDLW  0F
072F:  MOVWF  6E
0730:  MOVF   6E,W
0731:  MOVWF  6F
*
07B0:  MOVF   6D,W
07B1:  ANDLW  0F
07B2:  MOVWF  6E
07B3:  MOVF   6E,W
07B4:  MOVWF  6F
*
0B0E:  MOVF   6D,W
0B0F:  ANDLW  0F
0B10:  MOVWF  6E
0B11:  MOVF   6E,W
0B12:  MOVWF  6F
*
0B8F:  MOVF   6D,W
0B90:  ANDLW  0F
0B91:  MOVWF  6E
0B92:  MOVF   6E,W
0B93:  MOVWF  6F
*
0C25:  MOVF   6D,W
0C26:  ANDLW  0F
0C27:  MOVWF  6E
0C28:  MOVF   6E,W
0C29:  MOVWF  6F
*
0CBB:  MOVF   6D,W
0CBC:  ANDLW  0F
0CBD:  MOVWF  6E
0CBE:  MOVF   6E,W
0CBF:  MOVWF  6F
*
0D51:  MOVF   6D,W
0D52:  ANDLW  0F
0D53:  MOVWF  6E
0D54:  MOVF   6E,W
0D55:  MOVWF  6F
*
0DE6:  MOVF   6D,W
0DE7:  ANDLW  0F
0DE8:  MOVWF  6E
0DE9:  MOVF   6E,W
0DEA:  MOVWF  6F
*
1066:  MOVF   6D,W
1067:  ANDLW  0F
1068:  MOVWF  6E
1069:  MOVF   6E,W
106A:  MOVWF  6F
*
1228:  MOVF   6D,W
1229:  ANDLW  0F
122A:  MOVWF  6E
122B:  MOVF   6E,W
122C:  MOVWF  6F
*
1388:  MOVF   6D,W
1389:  ANDLW  0F
138A:  MOVWF  6E
138B:  MOVF   6E,W
138C:  MOVWF  6F
*
1537:  MOVF   6D,W
1538:  ANDLW  0F
1539:  MOVWF  6E
153A:  MOVF   6E,W
153B:  MOVWF  6F
.................... } 
....................  
.................... #if defined(LCD_EXTENDED_NEWLINE) 
.................... unsigned int8 g_LcdX, g_LcdY; 
.................... #endif 
....................  
.................... void lcd_init(void)  
.................... { 
....................    unsigned int8 i; 
....................    unsigned int8 LCD_INIT_STRING[4] = {0x20 | (LCD_TYPE << 2), 0xc, 1, 6}; 
*
0A4D:  MOVLW  28
0A4E:  MOVWF  3D
0A4F:  MOVLW  0C
0A50:  MOVWF  3E
0A51:  MOVLW  01
0A52:  MOVWF  3F
0A53:  MOVLW  06
0A54:  MOVWF  40
....................                              // These bytes need to be sent to the LCD 
....................                              // to start it up. 
....................     
....................  
....................    lcd_output_enable(0); 
0A55:  BCF    08.0
....................    lcd_output_rs(0); 
0A56:  BCF    08.1
....................    lcd_output_rw(0); 
0A57:  BCF    08.2
....................  
....................  #if defined(__PCB__) 
....................    set_tris_lcd(LCD_OUTPUT_MAP); 
....................  #else 
....................   #if (defined(LCD_DATA4) && defined(LCD_DATA5) && defined(LCD_DATA6) && defined(LCD_DATA7)) 
....................    output_drive(LCD_DATA4); 
....................    output_drive(LCD_DATA5); 
....................    output_drive(LCD_DATA6); 
....................    output_drive(LCD_DATA7); 
....................   #else 
....................    lcdtris.data = 0x0; 
0A58:  MOVLW  0F
0A59:  BSF    03.5
0A5A:  ANDWF  08,W
0A5B:  MOVWF  08
....................   #endif 
....................    lcd_enable_tris(); 
0A5C:  BCF    08.0
....................    lcd_rs_tris(); 
0A5D:  BCF    08.1
....................    lcd_rw_tris(); 
0A5E:  BCF    08.2
0A5F:  BCF    03.5
0A60:  CLRF   2B
0A61:  BTFSC  0B.7
0A62:  BSF    2B.7
0A63:  BCF    0B.7
....................  #endif 
....................      
....................    delay_ms(15); 
0A64:  MOVLW  0F
0A65:  MOVWF  68
0A66:  BCF    0A.3
0A67:  CALL   0EE
0A68:  BSF    0A.3
0A69:  BTFSC  2B.7
0A6A:  BSF    0B.7
....................    for(i=1;i<=3;++i) 
0A6B:  MOVLW  01
0A6C:  MOVWF  3C
0A6D:  MOVF   3C,W
0A6E:  SUBLW  03
0A6F:  BTFSS  03.0
0A70:  GOTO   290
....................    { 
....................        lcd_send_nibble(3); 
0A71:  MOVLW  03
0A72:  MOVWF  6F
....................        delay_ms(5); 
*
0A87:  MOVLW  05
0A88:  MOVWF  68
0A89:  BCF    0A.3
0A8A:  CALL   0EE
0A8B:  BSF    0A.3
0A8C:  BTFSC  2B.7
0A8D:  BSF    0B.7
0A8E:  INCF   3C,F
0A8F:  GOTO   26D
....................    } 
....................     
....................    lcd_send_nibble(2); 
0A90:  MOVLW  02
0A91:  MOVWF  6F
....................    delay_ms(5); 
*
0AA6:  MOVLW  05
0AA7:  MOVWF  68
0AA8:  BCF    0A.3
0AA9:  CALL   0EE
0AAA:  BSF    0A.3
0AAB:  BTFSC  2B.7
0AAC:  BSF    0B.7
....................    for(i=0;i<=3;++i) 
0AAD:  CLRF   3C
0AAE:  MOVF   3C,W
0AAF:  SUBLW  03
0AB0:  BTFSS  03.0
0AB1:  GOTO   325
....................       lcd_send_byte(0,LCD_INIT_STRING[i]); 
0AB2:  MOVLW  3D
0AB3:  ADDWF  3C,W
0AB4:  MOVWF  04
0AB5:  BCF    03.7
0AB6:  MOVF   00,W
0AB7:  MOVWF  41
0AB8:  CLRF   6C
0AB9:  MOVF   41,W
0ABA:  MOVWF  6D
....................  
....................   #if defined(LCD_EXTENDED_NEWLINE) 
*
0B23:  INCF   3C,F
0B24:  GOTO   2AE
0B25:  BSF    0A.3
0B26:  BCF    0A.4
0B27:  GOTO   63B (RETURN)
....................    g_LcdX = 0; 
....................    g_LcdY = 0; 
....................   #endif 
.................... } 
....................  
.................... void lcd_gotoxy(unsigned int8 x, unsigned int8 y) 
.................... { 
....................    unsigned int8 address; 
....................     
....................    if(y!=1) 
*
0113:  DECFSZ 69,W
0114:  GOTO   116
0115:  GOTO   119
*
01FF:  DECFSZ 69,W
0200:  GOTO   202
0201:  GOTO   205
*
03B9:  DECFSZ 69,W
03BA:  GOTO   3BC
03BB:  GOTO   3BF
*
043B:  DECFSZ 69,W
043C:  GOTO   43E
043D:  GOTO   441
*
04BE:  DECFSZ 69,W
04BF:  GOTO   4C1
04C0:  GOTO   4C4
*
0541:  DECFSZ 69,W
0542:  GOTO   544
0543:  GOTO   547
*
05C5:  DECFSZ 69,W
05C6:  GOTO   5C8
05C7:  GOTO   5CB
*
0647:  DECFSZ 69,W
0648:  GOTO   64A
0649:  GOTO   64D
*
06CA:  DECFSZ 69,W
06CB:  GOTO   6CD
06CC:  GOTO   6D0
*
074D:  DECFSZ 69,W
074E:  GOTO   750
074F:  GOTO   753
*
0B2C:  DECFSZ 69,W
0B2D:  GOTO   32F
0B2E:  GOTO   332
*
0BC2:  DECFSZ 69,W
0BC3:  GOTO   3C5
0BC4:  GOTO   3C8
*
0C58:  DECFSZ 69,W
0C59:  GOTO   45B
0C5A:  GOTO   45E
*
0CEE:  DECFSZ 69,W
0CEF:  GOTO   4F1
0CF0:  GOTO   4F4
*
0D83:  DECFSZ 69,W
0D84:  GOTO   586
0D85:  GOTO   589
*
1003:  DECFSZ 69,W
1004:  GOTO   006
1005:  GOTO   009
*
11C5:  DECFSZ 69,W
11C6:  GOTO   1C8
11C7:  GOTO   1CB
*
1325:  DECFSZ 69,W
1326:  GOTO   328
1327:  GOTO   32B
*
14D4:  DECFSZ 69,W
14D5:  GOTO   4D7
14D6:  GOTO   4DA
....................       address=LCD_LINE_TWO; 
*
0116:  MOVLW  40
0117:  MOVWF  6A
0118:  GOTO   11A
*
0202:  MOVLW  40
0203:  MOVWF  6A
0204:  GOTO   206
*
03BC:  MOVLW  40
03BD:  MOVWF  6A
03BE:  GOTO   3C0
*
043E:  MOVLW  40
043F:  MOVWF  6A
0440:  GOTO   442
*
04C1:  MOVLW  40
04C2:  MOVWF  6A
04C3:  GOTO   4C5
*
0544:  MOVLW  40
0545:  MOVWF  6A
0546:  GOTO   548
*
05C8:  MOVLW  40
05C9:  MOVWF  6A
05CA:  GOTO   5CC
*
064A:  MOVLW  40
064B:  MOVWF  6A
064C:  GOTO   64E
*
06CD:  MOVLW  40
06CE:  MOVWF  6A
06CF:  GOTO   6D1
*
0750:  MOVLW  40
0751:  MOVWF  6A
0752:  GOTO   754
*
0B2F:  MOVLW  40
0B30:  MOVWF  6A
0B31:  GOTO   333
*
0BC5:  MOVLW  40
0BC6:  MOVWF  6A
0BC7:  GOTO   3C9
*
0C5B:  MOVLW  40
0C5C:  MOVWF  6A
0C5D:  GOTO   45F
*
0CF1:  MOVLW  40
0CF2:  MOVWF  6A
0CF3:  GOTO   4F5
*
0D86:  MOVLW  40
0D87:  MOVWF  6A
0D88:  GOTO   58A
*
1006:  MOVLW  40
1007:  MOVWF  6A
1008:  GOTO   00A
*
11C8:  MOVLW  40
11C9:  MOVWF  6A
11CA:  GOTO   1CC
*
1328:  MOVLW  40
1329:  MOVWF  6A
132A:  GOTO   32C
*
14D7:  MOVLW  40
14D8:  MOVWF  6A
14D9:  GOTO   4DB
....................    else 
....................       address=0; 
*
0119:  CLRF   6A
*
0205:  CLRF   6A
*
03BF:  CLRF   6A
*
0441:  CLRF   6A
*
04C4:  CLRF   6A
*
0547:  CLRF   6A
*
05CB:  CLRF   6A
*
064D:  CLRF   6A
*
06D0:  CLRF   6A
*
0753:  CLRF   6A
*
0B32:  CLRF   6A
*
0BC8:  CLRF   6A
*
0C5E:  CLRF   6A
*
0CF4:  CLRF   6A
*
0D89:  CLRF   6A
*
1009:  CLRF   6A
*
11CB:  CLRF   6A
*
132B:  CLRF   6A
*
14DA:  CLRF   6A
....................       
....................    address+=x-1; 
*
011A:  MOVLW  01
011B:  SUBWF  68,W
011C:  ADDWF  6A,F
*
0206:  MOVLW  01
0207:  SUBWF  68,W
0208:  ADDWF  6A,F
*
03C0:  MOVLW  01
03C1:  SUBWF  68,W
03C2:  ADDWF  6A,F
*
0442:  MOVLW  01
0443:  SUBWF  68,W
0444:  ADDWF  6A,F
*
04C5:  MOVLW  01
04C6:  SUBWF  68,W
04C7:  ADDWF  6A,F
*
0548:  MOVLW  01
0549:  SUBWF  68,W
054A:  ADDWF  6A,F
*
05CC:  MOVLW  01
05CD:  SUBWF  68,W
05CE:  ADDWF  6A,F
*
064E:  MOVLW  01
064F:  SUBWF  68,W
0650:  ADDWF  6A,F
*
06D1:  MOVLW  01
06D2:  SUBWF  68,W
06D3:  ADDWF  6A,F
*
0754:  MOVLW  01
0755:  SUBWF  68,W
0756:  ADDWF  6A,F
*
0B33:  MOVLW  01
0B34:  SUBWF  68,W
0B35:  ADDWF  6A,F
*
0BC9:  MOVLW  01
0BCA:  SUBWF  68,W
0BCB:  ADDWF  6A,F
*
0C5F:  MOVLW  01
0C60:  SUBWF  68,W
0C61:  ADDWF  6A,F
*
0CF5:  MOVLW  01
0CF6:  SUBWF  68,W
0CF7:  ADDWF  6A,F
*
0D8A:  MOVLW  01
0D8B:  SUBWF  68,W
0D8C:  ADDWF  6A,F
*
100A:  MOVLW  01
100B:  SUBWF  68,W
100C:  ADDWF  6A,F
*
11CC:  MOVLW  01
11CD:  SUBWF  68,W
11CE:  ADDWF  6A,F
*
132C:  MOVLW  01
132D:  SUBWF  68,W
132E:  ADDWF  6A,F
*
14DB:  MOVLW  01
14DC:  SUBWF  68,W
14DD:  ADDWF  6A,F
....................    lcd_send_byte(0,0x80|address); 
*
011D:  MOVF   6A,W
011E:  IORLW  80
011F:  MOVWF  6B
0120:  CLRF   6C
0121:  MOVF   6B,W
0122:  MOVWF  6D
*
0209:  MOVF   6A,W
020A:  IORLW  80
020B:  MOVWF  6B
020C:  CLRF   6C
020D:  MOVF   6B,W
020E:  MOVWF  6D
*
03C3:  MOVF   6A,W
03C4:  IORLW  80
03C5:  MOVWF  6B
03C6:  CLRF   6C
03C7:  MOVF   6B,W
03C8:  MOVWF  6D
*
0445:  MOVF   6A,W
0446:  IORLW  80
0447:  MOVWF  6B
0448:  CLRF   6C
0449:  MOVF   6B,W
044A:  MOVWF  6D
*
04C8:  MOVF   6A,W
04C9:  IORLW  80
04CA:  MOVWF  6B
04CB:  CLRF   6C
04CC:  MOVF   6B,W
04CD:  MOVWF  6D
*
054B:  MOVF   6A,W
054C:  IORLW  80
054D:  MOVWF  6B
054E:  CLRF   6C
054F:  MOVF   6B,W
0550:  MOVWF  6D
*
05CF:  MOVF   6A,W
05D0:  IORLW  80
05D1:  MOVWF  6B
05D2:  CLRF   6C
05D3:  MOVF   6B,W
05D4:  MOVWF  6D
*
0651:  MOVF   6A,W
0652:  IORLW  80
0653:  MOVWF  6B
0654:  CLRF   6C
0655:  MOVF   6B,W
0656:  MOVWF  6D
*
06D4:  MOVF   6A,W
06D5:  IORLW  80
06D6:  MOVWF  6B
06D7:  CLRF   6C
06D8:  MOVF   6B,W
06D9:  MOVWF  6D
*
0757:  MOVF   6A,W
0758:  IORLW  80
0759:  MOVWF  6B
075A:  CLRF   6C
075B:  MOVF   6B,W
075C:  MOVWF  6D
*
0B36:  MOVF   6A,W
0B37:  IORLW  80
0B38:  MOVWF  6B
0B39:  CLRF   6C
0B3A:  MOVF   6B,W
0B3B:  MOVWF  6D
*
0BCC:  MOVF   6A,W
0BCD:  IORLW  80
0BCE:  MOVWF  6B
0BCF:  CLRF   6C
0BD0:  MOVF   6B,W
0BD1:  MOVWF  6D
*
0C62:  MOVF   6A,W
0C63:  IORLW  80
0C64:  MOVWF  6B
0C65:  CLRF   6C
0C66:  MOVF   6B,W
0C67:  MOVWF  6D
*
0CF8:  MOVF   6A,W
0CF9:  IORLW  80
0CFA:  MOVWF  6B
0CFB:  CLRF   6C
0CFC:  MOVF   6B,W
0CFD:  MOVWF  6D
*
0D8D:  MOVF   6A,W
0D8E:  IORLW  80
0D8F:  MOVWF  6B
0D90:  CLRF   6C
0D91:  MOVF   6B,W
0D92:  MOVWF  6D
*
100D:  MOVF   6A,W
100E:  IORLW  80
100F:  MOVWF  6B
1010:  CLRF   6C
1011:  MOVF   6B,W
1012:  MOVWF  6D
*
11CF:  MOVF   6A,W
11D0:  IORLW  80
11D1:  MOVWF  6B
11D2:  CLRF   6C
11D3:  MOVF   6B,W
11D4:  MOVWF  6D
*
132F:  MOVF   6A,W
1330:  IORLW  80
1331:  MOVWF  6B
1332:  CLRF   6C
1333:  MOVF   6B,W
1334:  MOVWF  6D
*
14DE:  MOVF   6A,W
14DF:  IORLW  80
14E0:  MOVWF  6B
14E1:  CLRF   6C
14E2:  MOVF   6B,W
14E3:  MOVWF  6D
....................  
....................   #if defined(LCD_EXTENDED_NEWLINE) 
....................    g_LcdX = x - 1; 
....................    g_LcdY = y - 1; 
....................   #endif 
.................... } 
....................  
.................... void lcd_putc(char c) 
.................... { 
....................    switch (c) 
*
0102:  MOVF   67,W
0103:  XORLW  07
0104:  BTFSC  03.2
0105:  GOTO   110
0106:  XORLW  0B
0107:  BTFSC  03.2
0108:  GOTO   18C
0109:  XORLW  06
010A:  BTFSC  03.2
010B:  GOTO   1FB
010C:  XORLW  02
010D:  BTFSC  03.2
010E:  GOTO   278
010F:  GOTO   2E4
....................    { 
....................       case '\a'   :  lcd_gotoxy(1,1);     break; 
0110:  MOVLW  01
0111:  MOVWF  68
0112:  MOVWF  69
*
018B:  GOTO   350
....................  
....................       case '\f'   :  lcd_send_byte(0,1); 
018C:  CLRF   6C
018D:  MOVLW  01
018E:  MOVWF  6D
....................                      delay_ms(2); 
*
01F7:  MOVLW  02
01F8:  MOVWF  68
01F9:  CALL   0EE
....................                     #if defined(LCD_EXTENDED_NEWLINE) 
....................                      g_LcdX = 0; 
....................                      g_LcdY = 0; 
....................                     #endif 
....................                      break; 
01FA:  GOTO   350
....................  
....................      #if defined(LCD_EXTENDED_NEWLINE) 
....................       case '\r'   :  lcd_gotoxy(1, g_LcdY+1);   break; 
....................       case '\n'   : 
....................          while (g_LcdX++ < LCD_LINE_LENGTH) 
....................          { 
....................             lcd_send_byte(1, ' '); 
....................          } 
....................          lcd_gotoxy(1, g_LcdY+2); 
....................          break; 
....................      #else 
....................       case '\n'   : lcd_gotoxy(1,2);        break; 
01FB:  MOVLW  01
01FC:  MOVWF  68
01FD:  MOVLW  02
01FE:  MOVWF  69
*
0277:  GOTO   350
....................      #endif 
....................       
....................       case '\b'   : lcd_send_byte(0,0x10);  break; 
0278:  CLRF   6C
0279:  MOVLW  10
027A:  MOVWF  6D
*
02E3:  GOTO   350
....................       
....................      #if defined(LCD_EXTENDED_NEWLINE) 
....................       default     :  
....................          if (g_LcdX < LCD_LINE_LENGTH) 
....................          { 
....................             lcd_send_byte(1, c); 
....................             g_LcdX++; 
....................          } 
....................          break; 
....................      #else 
....................       default     : lcd_send_byte(1,c);     break; 
02E4:  MOVLW  01
02E5:  MOVWF  6C
02E6:  MOVF   67,W
02E7:  MOVWF  6D
....................      #endif 
....................    } 
*
0350:  RETURN
.................... } 
....................   
.................... char lcd_getc(unsigned int8 x, unsigned int8 y) 
.................... { 
....................    char value; 
....................  
....................    lcd_gotoxy(x,y); 
....................    while ( bit_test(lcd_read_byte(),7) ); // wait until busy flag is low 
....................    lcd_output_rs(1); 
....................    value = lcd_read_byte(); 
....................    lcd_output_rs(0); 
....................     
....................    return(value); 
.................... } 
....................  
.................... // write a custom character to the ram 
.................... // which is 0-7 and specifies which character array we are modifying. 
.................... // ptr points to an array of 8 bytes, where each byte is the next row of 
.................... //    pixels.  only bits 0-4 are used.  the last row is the cursor row, and 
.................... //    usually you will want to leave this byte 0x00. 
.................... void lcd_set_cgram_char(unsigned int8 which, unsigned int8 *ptr) 
.................... { 
....................    unsigned int i; 
....................  
....................    which <<= 3; 
....................    which &= 0x38; 
....................  
....................    lcd_send_byte(0, 0x40 | which);  //set cgram address 
....................  
....................    for(i=0; i<8; i++) 
....................    { 
....................       lcd_send_byte(1, *ptr++); 
....................    } 
....................    
....................    #if defined(LCD_EXTENDED_NEWLINE) 
....................     lcd_gotoxy(g_LcdX+1, g_LcdY+1);  //set ddram address 
....................    #endif 
.................... } 
....................  
.................... void lcd_cursor_on(int1 on) 
.................... { 
....................    if (on) 
....................    { 
....................       lcd_send_byte(0,0x0F);           //turn LCD cursor ON 
....................    } 
....................    else 
....................    { 
....................       lcd_send_byte(0,0x0C);           //turn LCD cursor OFF 
....................    } 
.................... } 
....................  
.................... #endif 
....................  
.................... #org 0x1F00, 0x1FFF void loader16F877(void) {} // reserva la memoria donde esta el bootloader 
*
1F00:  RETURN
....................  
....................  
.................... float temperatura;   // variable para almacenar la lectura de temperatura 
.................... float voltaje;       // variable para almacenar la lectura de voltaje 
.................... float corriente;     // variable para almacenar la lectura de corriente 
.................... INT16 lectura;       // variable para guardar temporalmente lectura digital 
.................... int dentro;          // indica si se est en el men o midiendo 
.................... int estado;          // estado en el que est치 el men칰 
....................  
.................... // Se muestra el mensaje de bienvenida 
.................... void inicioLCD() { 
....................    lcd_gotoxy(2,1);   
*
0B28:  MOVLW  02
0B29:  MOVWF  68
0B2A:  MOVLW  01
0B2B:  MOVWF  69
....................    printf(lcd_putc," Equipo 2:\n");  
*
0BA4:  MOVLW  4F
0BA5:  BSF    03.6
0BA6:  MOVWF  0D
0BA7:  MOVLW  00
0BA8:  MOVWF  0F
0BA9:  BCF    03.6
0BAA:  CLRF   2B
0BAB:  BTFSC  0B.7
0BAC:  BSF    2B.7
0BAD:  BCF    0B.7
0BAE:  BCF    0A.3
0BAF:  CALL   351
0BB0:  BSF    0A.3
0BB1:  BTFSC  2B.7
0BB2:  BSF    0B.7
0BB3:  CLRF   2B
0BB4:  BTFSC  0B.7
0BB5:  BSF    2B.7
0BB6:  BCF    0B.7
....................    delay_ms(40);      
0BB7:  MOVLW  28
0BB8:  MOVWF  68
0BB9:  BCF    0A.3
0BBA:  CALL   0EE
0BBB:  BSF    0A.3
0BBC:  BTFSC  2B.7
0BBD:  BSF    0B.7
....................    lcd_gotoxy(1,2); 
0BBE:  MOVLW  01
0BBF:  MOVWF  68
0BC0:  MOVLW  02
0BC1:  MOVWF  69
....................    printf(lcd_putc," Alcantar Vianey "); 
*
0C3A:  MOVLW  55
0C3B:  BSF    03.6
0C3C:  MOVWF  0D
0C3D:  MOVLW  00
0C3E:  MOVWF  0F
0C3F:  BCF    03.6
0C40:  CLRF   2B
0C41:  BTFSC  0B.7
0C42:  BSF    2B.7
0C43:  BCF    0B.7
0C44:  BCF    0A.3
0C45:  CALL   351
0C46:  BSF    0A.3
0C47:  BTFSC  2B.7
0C48:  BSF    0B.7
0C49:  CLRF   2B
0C4A:  BTFSC  0B.7
0C4B:  BSF    2B.7
0C4C:  BCF    0B.7
....................    delay_ms(40); 
0C4D:  MOVLW  28
0C4E:  MOVWF  68
0C4F:  BCF    0A.3
0C50:  CALL   0EE
0C51:  BSF    0A.3
0C52:  BTFSC  2B.7
0C53:  BSF    0B.7
....................    lcd_gotoxy(1,2); 
0C54:  MOVLW  01
0C55:  MOVWF  68
0C56:  MOVLW  02
0C57:  MOVWF  69
....................    printf(lcd_putc," Sanchez Alexis "); 
*
0CD0:  MOVLW  5E
0CD1:  BSF    03.6
0CD2:  MOVWF  0D
0CD3:  MOVLW  00
0CD4:  MOVWF  0F
0CD5:  BCF    03.6
0CD6:  CLRF   2B
0CD7:  BTFSC  0B.7
0CD8:  BSF    2B.7
0CD9:  BCF    0B.7
0CDA:  BCF    0A.3
0CDB:  CALL   351
0CDC:  BSF    0A.3
0CDD:  BTFSC  2B.7
0CDE:  BSF    0B.7
0CDF:  CLRF   2B
0CE0:  BTFSC  0B.7
0CE1:  BSF    2B.7
0CE2:  BCF    0B.7
....................    delay_ms(40); 
0CE3:  MOVLW  28
0CE4:  MOVWF  68
0CE5:  BCF    0A.3
0CE6:  CALL   0EE
0CE7:  BSF    0A.3
0CE8:  BTFSC  2B.7
0CE9:  BSF    0B.7
....................    lcd_gotoxy(1,2); 
0CEA:  MOVLW  01
0CEB:  MOVWF  68
0CEC:  MOVLW  02
0CED:  MOVWF  69
....................    printf(lcd_putc," Velazquez Karla "); 
*
0D66:  MOVLW  67
0D67:  BSF    03.6
0D68:  MOVWF  0D
0D69:  MOVLW  00
0D6A:  MOVWF  0F
0D6B:  BCF    03.6
0D6C:  CLRF   2B
0D6D:  BTFSC  0B.7
0D6E:  BSF    2B.7
0D6F:  BCF    0B.7
0D70:  BCF    0A.3
0D71:  CALL   351
0D72:  BSF    0A.3
0D73:  BTFSC  2B.7
0D74:  BSF    0B.7
0D75:  CLRF   2B
0D76:  BTFSC  0B.7
0D77:  BSF    2B.7
0D78:  BCF    0B.7
....................    delay_ms(40); 
0D79:  MOVLW  28
0D7A:  MOVWF  68
0D7B:  BCF    0A.3
0D7C:  CALL   0EE
0D7D:  BSF    0A.3
0D7E:  BTFSC  2B.7
0D7F:  BSF    0B.7
....................    lcd_gotoxy(1,1); 
0D80:  MOVLW  01
0D81:  MOVWF  68
0D82:  MOVWF  69
....................    printf(lcd_putc,"\f"); 
*
0DFF:  MOVLW  0C
0E00:  MOVWF  67
0E01:  BCF    0A.3
0E02:  CALL   102
0E03:  BSF    0A.3
0E04:  BTFSC  2B.7
0E05:  BSF    0B.7
....................    printf(lcd_putc,"Proyecto Final  "); 
0E06:  MOVLW  70
0E07:  BSF    03.6
0E08:  MOVWF  0D
0E09:  MOVLW  00
0E0A:  MOVWF  0F
0E0B:  BCF    03.6
0E0C:  CLRF   2B
0E0D:  BTFSC  0B.7
0E0E:  BSF    2B.7
0E0F:  BCF    0B.7
0E10:  BCF    0A.3
0E11:  CALL   351
0E12:  BSF    0A.3
0E13:  BTFSC  2B.7
0E14:  BSF    0B.7
0E15:  CLRF   2B
0E16:  BTFSC  0B.7
0E17:  BSF    2B.7
0E18:  BCF    0B.7
....................    delay_ms(40); 
0E19:  MOVLW  28
0E1A:  MOVWF  68
0E1B:  BCF    0A.3
0E1C:  CALL   0EE
0E1D:  BSF    0A.3
0E1E:  BTFSC  2B.7
0E1F:  BSF    0B.7
0E20:  BSF    0A.3
0E21:  BCF    0A.4
0E22:  GOTO   659 (RETURN)
.................... } 
....................  
.................... // Funcion para mostrar el men inicial 
.................... void imprimeMenu() { 
....................    switch (estado){ 
*
03A7:  MOVF   3B,W
03A8:  XORLW  00
03A9:  BTFSC  03.2
03AA:  GOTO   3B5
03AB:  XORLW  01
03AC:  BTFSC  03.2
03AD:  GOTO   4BB
03AE:  XORLW  03
03AF:  BTFSC  03.2
03B0:  GOTO   5C1
03B1:  XORLW  01
03B2:  BTFSC  03.2
03B3:  GOTO   6C7
03B4:  GOTO   7CD
....................       case 0: 
....................          lcd_gotoxy(1,2); 
03B5:  MOVLW  01
03B6:  MOVWF  68
03B7:  MOVLW  02
03B8:  MOVWF  69
....................          printf(lcd_putc,"   Voltaje     "); 
*
0431:  MOVLW  79
0432:  BSF    03.6
0433:  MOVWF  0D
0434:  MOVLW  00
0435:  MOVWF  0F
0436:  BCF    03.6
0437:  CALL   351
....................          lcd_gotoxy(1,1); 
0438:  MOVLW  01
0439:  MOVWF  68
043A:  MOVWF  69
....................          printf(lcd_putc,"  *Temperatura "); 
*
04B3:  MOVLW  81
04B4:  BSF    03.6
04B5:  MOVWF  0D
04B6:  MOVLW  00
04B7:  MOVWF  0F
04B8:  BCF    03.6
04B9:  CALL   351
....................          break; 
04BA:  GOTO   7CD
....................       case 1: 
....................          lcd_gotoxy(1,1); 
04BB:  MOVLW  01
04BC:  MOVWF  68
04BD:  MOVWF  69
....................          printf(lcd_putc,"   Temperatura "); 
*
0536:  MOVLW  89
0537:  BSF    03.6
0538:  MOVWF  0D
0539:  MOVLW  00
053A:  MOVWF  0F
053B:  BCF    03.6
053C:  CALL   351
....................          lcd_gotoxy(1,2); 
053D:  MOVLW  01
053E:  MOVWF  68
053F:  MOVLW  02
0540:  MOVWF  69
....................          printf(lcd_putc,"  *Voltaje     "); 
*
05B9:  MOVLW  91
05BA:  BSF    03.6
05BB:  MOVWF  0D
05BC:  MOVLW  00
05BD:  MOVWF  0F
05BE:  BCF    03.6
05BF:  CALL   351
....................          break; 
05C0:  GOTO   7CD
....................       case 2: 
....................          lcd_gotoxy(1,2); 
05C1:  MOVLW  01
05C2:  MOVWF  68
05C3:  MOVLW  02
05C4:  MOVWF  69
....................          printf(lcd_putc,"   Corriente   "); 
*
063D:  MOVLW  99
063E:  BSF    03.6
063F:  MOVWF  0D
0640:  MOVLW  00
0641:  MOVWF  0F
0642:  BCF    03.6
0643:  CALL   351
....................          lcd_gotoxy(1,1); 
0644:  MOVLW  01
0645:  MOVWF  68
0646:  MOVWF  69
....................          printf(lcd_putc,"  *Voltaje     "); 
*
06BF:  MOVLW  A1
06C0:  BSF    03.6
06C1:  MOVWF  0D
06C2:  MOVLW  00
06C3:  MOVWF  0F
06C4:  BCF    03.6
06C5:  CALL   351
....................          break; 
06C6:  GOTO   7CD
....................       case 3: 
....................          lcd_gotoxy(1,1); 
06C7:  MOVLW  01
06C8:  MOVWF  68
06C9:  MOVWF  69
....................          printf(lcd_putc,"   Voltaje     "); 
*
0742:  MOVLW  A9
0743:  BSF    03.6
0744:  MOVWF  0D
0745:  MOVLW  00
0746:  MOVWF  0F
0747:  BCF    03.6
0748:  CALL   351
....................          lcd_gotoxy(1,2); 
0749:  MOVLW  01
074A:  MOVWF  68
074B:  MOVLW  02
074C:  MOVWF  69
....................          printf(lcd_putc,"  *Corriente   "); 
*
07C5:  MOVLW  B1
07C6:  BSF    03.6
07C7:  MOVWF  0D
07C8:  MOVLW  00
07C9:  MOVWF  0F
07CA:  BCF    03.6
07CB:  CALL   351
....................          break; 
07CC:  GOTO   7CD
....................       default: 
....................          break; 
....................    } 
07CD:  RETURN
.................... } 
....................  
.................... // Funci蚤 que muestra el estado actual de lectura 
.................... void imprimeLectura() { 
....................    lcd_gotoxy(1,1); 
*
1000:  MOVLW  01
1001:  MOVWF  68
1002:  MOVWF  69
....................    switch (estado){ 
*
107B:  MOVF   3B,W
107C:  BTFSC  03.2
107D:  GOTO   088
107E:  XORLW  01
107F:  BTFSC  03.2
1080:  GOTO   2C6
1081:  XORLW  03
1082:  BTFSC  03.2
1083:  GOTO   2C6
1084:  XORLW  01
1085:  BTFSC  03.2
1086:  GOTO   475
1087:  GOTO   624
....................       case 0: 
....................          set_adc_channel(0);                       // Configura el canal 0 para usar 
1088:  MOVLW  00
1089:  MOVWF  78
108A:  MOVF   1F,W
108B:  ANDLW  C7
108C:  IORWF  78,W
108D:  MOVWF  1F
....................          delay_us(20);                             // Retardo de 20 us 
108E:  MOVLW  20
108F:  MOVWF  77
1090:  DECFSZ 77,F
1091:  GOTO   090
1092:  GOTO   093
1093:  NOP
....................          lectura = read_adc();                     // obtiene el resultado de A/D 
1094:  BSF    1F.2
1095:  BTFSC  1F.2
1096:  GOTO   095
1097:  BSF    03.5
1098:  MOVF   1E,W
1099:  BCF    03.5
109A:  MOVWF  38
109B:  MOVF   1E,W
109C:  MOVWF  39
....................          temperatura = (lectura * 500.0)/ 1023.0;  // ecuaci칩n lineal temper.  C 
109D:  MOVF   39,W
109E:  MOVWF  5B
109F:  MOVF   38,W
10A0:  MOVWF  5A
*
10BD:  MOVF   7A,W
10BE:  MOVWF  6A
10BF:  MOVF   79,W
10C0:  MOVWF  69
10C1:  MOVF   78,W
10C2:  MOVWF  68
10C3:  MOVF   77,W
10C4:  MOVWF  67
10C5:  CLRF   6E
10C6:  CLRF   6D
10C7:  MOVLW  7A
10C8:  MOVWF  6C
10C9:  MOVLW  87
10CA:  MOVWF  6B
10CB:  BCF    0A.4
10CC:  BSF    0A.3
10CD:  CALL   000
10CE:  BSF    0A.4
10CF:  BCF    0A.3
10D0:  MOVF   7A,W
10D1:  MOVWF  5D
10D2:  MOVF   79,W
10D3:  MOVWF  5C
10D4:  MOVF   78,W
10D5:  MOVWF  5B
10D6:  MOVF   77,W
10D7:  MOVWF  5A
10D8:  MOVF   5D,W
10D9:  MOVWF  61
10DA:  MOVF   5C,W
10DB:  MOVWF  60
10DC:  MOVF   5B,W
10DD:  MOVWF  5F
10DE:  MOVF   5A,W
10DF:  MOVWF  5E
10E0:  CLRF   65
10E1:  MOVLW  C0
10E2:  MOVWF  64
10E3:  MOVLW  7F
10E4:  MOVWF  63
10E5:  MOVLW  88
10E6:  MOVWF  62
*
11B0:  MOVF   7A,W
11B1:  MOVWF  2F
11B2:  MOVF   79,W
11B3:  MOVWF  2E
11B4:  MOVF   78,W
11B5:  MOVWF  2D
11B6:  MOVF   77,W
11B7:  MOVWF  2C
....................          printf(lcd_putc," Temperatura:   "); 
11B8:  MOVLW  B9
11B9:  BSF    03.6
11BA:  MOVWF  0D
11BB:  MOVLW  00
11BC:  MOVWF  0F
11BD:  BCF    0A.4
11BE:  BCF    03.6
11BF:  CALL   351
11C0:  BSF    0A.4
....................          lcd_gotoxy(1,2); 
11C1:  MOVLW  01
11C2:  MOVWF  68
11C3:  MOVLW  02
11C4:  MOVWF  69
....................          printf(lcd_putc,"   %04.1f C   ", temperatura); 
*
123D:  MOVLW  20
123E:  MOVWF  67
123F:  BCF    0A.4
1240:  CALL   102
1241:  BSF    0A.4
1242:  MOVLW  20
1243:  MOVWF  67
1244:  BCF    0A.4
1245:  CALL   102
1246:  BSF    0A.4
1247:  MOVLW  20
1248:  MOVWF  67
1249:  BCF    0A.4
124A:  CALL   102
124B:  BSF    0A.4
124C:  MOVLW  43
124D:  MOVWF  04
124E:  MOVF   2F,W
124F:  MOVWF  5D
1250:  MOVF   2E,W
1251:  MOVWF  5C
1252:  MOVF   2D,W
1253:  MOVWF  5B
1254:  MOVF   2C,W
1255:  MOVWF  5A
1256:  MOVLW  01
1257:  MOVWF  5E
1258:  BCF    0A.4
1259:  BSF    0A.3
125A:  CALL   075
125B:  BSF    0A.4
125C:  BCF    0A.3
125D:  MOVLW  C6
125E:  BSF    03.6
125F:  MOVWF  0D
1260:  MOVLW  00
1261:  MOVWF  0F
1262:  BSF    03.0
1263:  MOVLW  05
1264:  BCF    03.6
1265:  MOVWF  5A
....................          delay_ms(20); 
*
12C0:  MOVLW  14
12C1:  MOVWF  68
12C2:  BCF    0A.4
12C3:  CALL   0EE
12C4:  BSF    0A.4
....................          break; 
12C5:  GOTO   624
....................       case 1: 
....................       case 2: 
....................          set_adc_channel(1);     // Configura el canal 1 para usar 
12C6:  MOVLW  08
12C7:  MOVWF  78
12C8:  MOVF   1F,W
12C9:  ANDLW  C7
12CA:  IORWF  78,W
12CB:  MOVWF  1F
....................          delay_us(20);           // Retardo de 20 us 
12CC:  MOVLW  20
12CD:  MOVWF  77
12CE:  DECFSZ 77,F
12CF:  GOTO   2CE
12D0:  GOTO   2D1
12D1:  NOP
....................          lectura = read_adc();   // obtiene el resultado de A/D 
12D2:  BSF    1F.2
12D3:  BTFSC  1F.2
12D4:  GOTO   2D3
12D5:  BSF    03.5
12D6:  MOVF   1E,W
12D7:  BCF    03.5
12D8:  MOVWF  38
12D9:  MOVF   1E,W
12DA:  MOVWF  39
....................          voltaje = (lectura *0.0200098913771142) ;  // ecuaci칩n lineal voltaje V 
12DB:  MOVF   39,W
12DC:  MOVWF  5B
12DD:  MOVF   38,W
12DE:  MOVWF  5A
*
12FB:  MOVF   7A,W
12FC:  MOVWF  6A
12FD:  MOVF   79,W
12FE:  MOVWF  69
12FF:  MOVF   78,W
1300:  MOVWF  68
1301:  MOVF   77,W
1302:  MOVWF  67
1303:  MOVLW  C9
1304:  MOVWF  6E
1305:  MOVLW  EB
1306:  MOVWF  6D
1307:  MOVLW  23
1308:  MOVWF  6C
1309:  MOVLW  79
130A:  MOVWF  6B
130B:  BCF    0A.4
130C:  BSF    0A.3
130D:  CALL   000
130E:  BSF    0A.4
130F:  BCF    0A.3
1310:  MOVF   7A,W
1311:  MOVWF  33
1312:  MOVF   79,W
1313:  MOVWF  32
1314:  MOVF   78,W
1315:  MOVWF  31
1316:  MOVF   77,W
1317:  MOVWF  30
....................          printf(lcd_putc," Voltaje:       ");  
1318:  MOVLW  CA
1319:  BSF    03.6
131A:  MOVWF  0D
131B:  MOVLW  00
131C:  MOVWF  0F
131D:  BCF    0A.4
131E:  BCF    03.6
131F:  CALL   351
1320:  BSF    0A.4
....................          lcd_gotoxy(1,2); 
1321:  MOVLW  01
1322:  MOVWF  68
1323:  MOVLW  02
1324:  MOVWF  69
....................          printf(lcd_putc,"    %0.2f V      ", voltaje); 
*
139D:  MOVLW  D3
139E:  BSF    03.6
139F:  MOVWF  0D
13A0:  MOVLW  00
13A1:  MOVWF  0F
13A2:  BCF    03.0
13A3:  MOVLW  04
13A4:  BCF    03.6
13A5:  MOVWF  5A
*
1400:  MOVLW  C9
1401:  MOVWF  04
1402:  MOVF   33,W
1403:  MOVWF  5D
1404:  MOVF   32,W
1405:  MOVWF  5C
1406:  MOVF   31,W
1407:  MOVWF  5B
1408:  MOVF   30,W
1409:  MOVWF  5A
140A:  MOVLW  02
140B:  MOVWF  5E
140C:  BCF    0A.4
140D:  BSF    0A.3
140E:  CALL   075
140F:  BSF    0A.4
1410:  BCF    0A.3
1411:  MOVLW  D7
1412:  BSF    03.6
1413:  MOVWF  0D
1414:  MOVLW  00
1415:  MOVWF  0F
1416:  BSF    03.0
1417:  MOVLW  08
1418:  BCF    03.6
1419:  MOVWF  5A
....................          break; 
*
1474:  GOTO   624
....................       case 3: 
....................          set_adc_channel(2);     // Configura el canal 2 para usar 
1475:  MOVLW  10
1476:  MOVWF  78
1477:  MOVF   1F,W
1478:  ANDLW  C7
1479:  IORWF  78,W
147A:  MOVWF  1F
....................          delay_us(20);           // Retardo de 20 us 
147B:  MOVLW  20
147C:  MOVWF  77
147D:  DECFSZ 77,F
147E:  GOTO   47D
147F:  GOTO   480
1480:  NOP
....................          lectura = read_adc();   // obtiene el resultado de A/D 
1481:  BSF    1F.2
1482:  BTFSC  1F.2
1483:  GOTO   482
1484:  BSF    03.5
1485:  MOVF   1E,W
1486:  BCF    03.5
1487:  MOVWF  38
1488:  MOVF   1E,W
1489:  MOVWF  39
....................          corriente = (lectura * 4.898007588791137);   // ecuaci칩n lineal corriente mA 
148A:  MOVF   39,W
148B:  MOVWF  5B
148C:  MOVF   38,W
148D:  MOVWF  5A
*
14AA:  MOVF   7A,W
14AB:  MOVWF  6A
14AC:  MOVF   79,W
14AD:  MOVWF  69
14AE:  MOVF   78,W
14AF:  MOVWF  68
14B0:  MOVF   77,W
14B1:  MOVWF  67
14B2:  MOVLW  7A
14B3:  MOVWF  6E
14B4:  MOVLW  BC
14B5:  MOVWF  6D
14B6:  MOVLW  1C
14B7:  MOVWF  6C
14B8:  MOVLW  81
14B9:  MOVWF  6B
14BA:  BCF    0A.4
14BB:  BSF    0A.3
14BC:  CALL   000
14BD:  BSF    0A.4
14BE:  BCF    0A.3
14BF:  MOVF   7A,W
14C0:  MOVWF  37
14C1:  MOVF   79,W
14C2:  MOVWF  36
14C3:  MOVF   78,W
14C4:  MOVWF  35
14C5:  MOVF   77,W
14C6:  MOVWF  34
....................          printf(lcd_putc," Corriente:     "); 
14C7:  MOVLW  DC
14C8:  BSF    03.6
14C9:  MOVWF  0D
14CA:  MOVLW  00
14CB:  MOVWF  0F
14CC:  BCF    0A.4
14CD:  BCF    03.6
14CE:  CALL   351
14CF:  BSF    0A.4
....................          lcd_gotoxy(1,2); 
14D0:  MOVLW  01
14D1:  MOVWF  68
14D2:  MOVLW  02
14D3:  MOVWF  69
....................          printf(lcd_putc,"    %05.1f mA    ", corriente); 
*
154C:  MOVLW  E5
154D:  BSF    03.6
154E:  MOVWF  0D
154F:  MOVLW  00
1550:  MOVWF  0F
1551:  BCF    03.0
1552:  MOVLW  04
1553:  BCF    03.6
1554:  MOVWF  5A
*
15AF:  MOVLW  44
15B0:  MOVWF  04
15B1:  MOVF   37,W
15B2:  MOVWF  5D
15B3:  MOVF   36,W
15B4:  MOVWF  5C
15B5:  MOVF   35,W
15B6:  MOVWF  5B
15B7:  MOVF   34,W
15B8:  MOVWF  5A
15B9:  MOVLW  01
15BA:  MOVWF  5E
15BB:  BCF    0A.4
15BC:  BSF    0A.3
15BD:  CALL   075
15BE:  BSF    0A.4
15BF:  BCF    0A.3
15C0:  MOVLW  EA
15C1:  BSF    03.6
15C2:  MOVWF  0D
15C3:  MOVLW  00
15C4:  MOVWF  0F
15C5:  BCF    03.0
15C6:  MOVLW  07
15C7:  BCF    03.6
15C8:  MOVWF  5A
....................          break; 
*
1623:  GOTO   624
....................       default: 
....................          break; 
....................    } 
1624:  RETURN
.................... } 
....................  
....................  
.................... // Control de interrupciones de los botones 
.................... #INT_RB 
.................... void port_rb(){ 
*
09F7:  CLRF   56
09F8:  BTFSS  06.4
09F9:  INCF   56,F
09FA:  CLRF   57
09FB:  BTFSS  06.5
09FC:  INCF   57,F
09FD:  CLRF   58
09FE:  BTFSS  06.6
09FF:  INCF   58,F
0A00:  CLRF   59
0A01:  BTFSS  06.7
0A02:  INCF   59,F
....................    int back  = !input_state(PIN_B4);   // button back 
....................    int enter = !input_state(PIN_B5);   // button enter 
....................    int down  = !input_state(PIN_B6);   // button abajo 
....................    int up    = !input_state(PIN_B7);   // button arriba 
....................  
....................    if (dentro) {   
0A03:  MOVF   3A,F
0A04:  BTFSC  03.2
0A05:  GOTO   20E
....................       if (back) { 
0A06:  MOVF   56,F
0A07:  BTFSC  03.2
0A08:  GOTO   20D
....................          dentro = 0; 
0A09:  CLRF   3A
....................          imprimeMenu(); 
0A0A:  BCF    0A.3
0A0B:  CALL   3A7
0A0C:  BSF    0A.3
....................       } 
....................       return; 
0A0D:  GOTO   249
....................    } 
....................  
....................    if (enter) {   
0A0E:  MOVF   57,F
0A0F:  BTFSC  03.2
0A10:  GOTO   219
....................       dentro = 1; 
0A11:  MOVLW  01
0A12:  MOVWF  3A
....................       imprimeLectura(); 
0A13:  BSF    0A.4
0A14:  BCF    0A.3
0A15:  CALL   000
0A16:  BCF    0A.4
0A17:  BSF    0A.3
....................       return; 
0A18:  GOTO   249
....................    } 
....................  
....................    // cambia el estado segun el boton presionado 
....................    switch (estado) { 
0A19:  MOVF   3B,W
0A1A:  BTFSC  03.2
0A1B:  GOTO   226
0A1C:  XORLW  01
0A1D:  BTFSC  03.2
0A1E:  GOTO   22F
0A1F:  XORLW  03
0A20:  BTFSC  03.2
0A21:  GOTO   22F
0A22:  XORLW  01
0A23:  BTFSC  03.2
0A24:  GOTO   240
0A25:  GOTO   249
....................       case 0: 
....................          if (down) { 
0A26:  MOVF   58,F
0A27:  BTFSC  03.2
0A28:  GOTO   22E
....................             estado = 1; 
0A29:  MOVLW  01
0A2A:  MOVWF  3B
....................             imprimeMenu(); 
0A2B:  BCF    0A.3
0A2C:  CALL   3A7
0A2D:  BSF    0A.3
....................          } 
....................          break; 
0A2E:  GOTO   249
....................       case 1: 
....................       case 2: 
....................          if (up) { 
0A2F:  MOVF   59,F
0A30:  BTFSC  03.2
0A31:  GOTO   237
....................             estado = 0; 
0A32:  CLRF   3B
....................             imprimeMenu(); 
0A33:  BCF    0A.3
0A34:  CALL   3A7
0A35:  BSF    0A.3
....................          }else if (down) { 
0A36:  GOTO   23F
0A37:  MOVF   58,F
0A38:  BTFSC  03.2
0A39:  GOTO   23F
....................             estado = 3; 
0A3A:  MOVLW  03
0A3B:  MOVWF  3B
....................             imprimeMenu(); 
0A3C:  BCF    0A.3
0A3D:  CALL   3A7
0A3E:  BSF    0A.3
....................          } 
....................          break; 
0A3F:  GOTO   249
....................       case 3: 
....................          if (up) { 
0A40:  MOVF   59,F
0A41:  BTFSC  03.2
0A42:  GOTO   248
....................             estado = 2; 
0A43:  MOVLW  02
0A44:  MOVWF  3B
....................             imprimeMenu(); 
0A45:  BCF    0A.3
0A46:  CALL   3A7
0A47:  BSF    0A.3
....................          } 
....................          break; 
0A48:  GOTO   249
....................       default: 
....................          break; 
....................    } // end switch 
....................    return; 
0A49:  BCF    0B.0
0A4A:  BCF    0A.3
0A4B:  BCF    0A.4
0A4C:  GOTO   02B
.................... } 
....................  
....................  
.................... int main() { 
*
0E23:  MOVF   03,W
0E24:  ANDLW  1F
0E25:  MOVWF  03
0E26:  MOVLW  81
0E27:  BSF    03.5
0E28:  MOVWF  19
0E29:  MOVLW  A6
0E2A:  MOVWF  18
0E2B:  MOVLW  90
0E2C:  BCF    03.5
0E2D:  MOVWF  18
0E2E:  BSF    03.5
0E2F:  BSF    1F.0
0E30:  BSF    1F.1
0E31:  BSF    1F.2
0E32:  BCF    1F.3
0E33:  MOVLW  07
0E34:  MOVWF  1C
0E35:  BCF    03.7
....................  
....................    //Inicializa lcd y convertidor ADC 
....................    enable_interrupts(INT_RB);     
0E36:  BCF    03.5
0E37:  BSF    0B.3
....................    enable_interrupts(GLOBAL);     
0E38:  MOVLW  C0
0E39:  IORWF  0B,F
....................    lcd_init();                   
0E3A:  GOTO   24D
....................    setup_port_a(ALL_ANALOG);      
0E3B:  BSF    03.5
0E3C:  BCF    1F.0
0E3D:  BCF    1F.1
0E3E:  BCF    1F.2
0E3F:  BCF    1F.3
....................    setup_adc(ADC_CLOCK_INTERNAL); 
0E40:  BCF    1F.6
0E41:  BCF    03.5
0E42:  BSF    1F.6
0E43:  BSF    1F.7
0E44:  BSF    03.5
0E45:  BSF    1F.7
0E46:  BCF    03.5
0E47:  BSF    1F.0
....................    // Inicializa variables 
....................    estado = 0; 
0E48:  CLRF   3B
....................    dentro = 0; 
0E49:  CLRF   3A
....................    lectura = 0; 
0E4A:  CLRF   39
0E4B:  CLRF   38
....................    temperatura = 0; 
0E4C:  CLRF   2F
0E4D:  CLRF   2E
0E4E:  CLRF   2D
0E4F:  CLRF   2C
....................    voltaje = 0; 
0E50:  CLRF   33
0E51:  CLRF   32
0E52:  CLRF   31
0E53:  CLRF   30
....................    corriente = 0; 
0E54:  CLRF   37
0E55:  CLRF   36
0E56:  CLRF   35
0E57:  CLRF   34
....................    //Mensajes de bienvenida 
....................    inicioLCD();    
0E58:  GOTO   328
0E59:  CLRF   2B
0E5A:  BTFSC  0B.7
0E5B:  BSF    2B.7
0E5C:  BCF    0B.7
....................    //Men 
....................    imprimeMenu();  
0E5D:  BCF    0A.3
0E5E:  CALL   3A7
0E5F:  BSF    0A.3
0E60:  BTFSC  2B.7
0E61:  BSF    0B.7
....................    //Ciclo de trabajo 
....................    while(true) { 
....................        
....................       if (dentro){ 
0E62:  MOVF   3A,F
0E63:  BTFSC  03.2
0E64:  GOTO   670
0E65:  CLRF   2B
0E66:  BTFSC  0B.7
0E67:  BSF    2B.7
0E68:  BCF    0B.7
....................          imprimeLectura(); 
0E69:  BSF    0A.4
0E6A:  BCF    0A.3
0E6B:  CALL   000
0E6C:  BCF    0A.4
0E6D:  BSF    0A.3
0E6E:  BTFSC  2B.7
0E6F:  BSF    0B.7
0E70:  CLRF   2B
0E71:  BTFSC  0B.7
0E72:  BSF    2B.7
0E73:  BCF    0B.7
....................       } 
....................       delay_ms(10); 
0E74:  MOVLW  0A
0E75:  MOVWF  68
0E76:  BCF    0A.3
0E77:  CALL   0EE
0E78:  BSF    0A.3
0E79:  BTFSC  2B.7
0E7A:  BSF    0B.7
0E7B:  GOTO   662
....................    } // end while 
....................     
....................    return 0; 
0E7C:  MOVLW  00
0E7D:  MOVWF  78
.................... } //end main 
....................  
0E7E:  SLEEP

Configuration Fuses:
   Word  1: 3F7A   HS NOWDT NOPUT BROWNOUT NOLVP NOCPD NOWRT NODEBUG NOPROTECT
